ARM GAS  C:\Users\Tehya\AppData\Local\Temp\ccYCCPEz.s 			page 1


   1              		.syntax unified
   2              		.cpu cortex-m3
   3              		.fpu softvfp
   4              		.eabi_attribute 20, 1
   5              		.eabi_attribute 21, 1
   6              		.eabi_attribute 23, 3
   7              		.eabi_attribute 24, 1
   8              		.eabi_attribute 25, 1
   9              		.eabi_attribute 26, 1
  10              		.eabi_attribute 30, 1
  11              		.eabi_attribute 34, 1
  12              		.eabi_attribute 18, 4
  13              		.thumb
  14              		.syntax unified
  15              		.file	"can_manga.c"
  16              		.text
  17              	.Ltext0:
  18              		.cfi_sections	.debug_frame
  19              		.section	.text.getCapacitorVoltage,"ax",%progbits
  20              		.align	2
  21              		.global	getCapacitorVoltage
  22              		.thumb
  23              		.thumb_func
  24              		.type	getCapacitorVoltage, %function
  25              	getCapacitorVoltage:
  26              	.LFB63:
  27              		.file 1 "can_manga.c"
   1:can_manga.c   **** /* ========================================
   2:can_manga.c   ****  * Can API for FRUCD
   3:can_manga.c   ****  * Schuyler Alschuler 2016 - 2017
   4:can_manga.c   ****  * ========================================
   5:can_manga.c   **** */
   6:can_manga.c   **** 
   7:can_manga.c   **** /*******************************************
   8:can_manga.c   ****  * Used to interface dashboard with CAN bus
   9:can_manga.c   ****  * some functinality can be found in CAN_TX_RX_func.c
  10:can_manga.c   ****  * which is a generated source file
  11:can_manga.c   ****  * see the can component of the top design for specific mailboxes
  12:can_manga.c   ****  ******************************************/
  13:can_manga.c   **** 
  14:can_manga.c   **** #include "CAN.h"
  15:can_manga.c   **** #include "can_manga.h"
  16:can_manga.c   **** #include "cytypes.h"
  17:can_manga.c   **** //#include "data.h"
  18:can_manga.c   **** 
  19:can_manga.c   **** extern volatile uint32_t pedalOK;
  20:can_manga.c   **** extern volatile double THROTTLE_MULTIPLIER;
  21:can_manga.c   **** extern const double THROTTLE_MAP[8];
  22:can_manga.c   **** extern volatile uint8_t PACK_TEMP;
  23:can_manga.c   **** extern volatile uint8_t BSPD_CATCH;
  24:can_manga.c   **** extern volatile int32 CURRENT;
  25:can_manga.c   **** extern volatile int ERROR_NODE;
  26:can_manga.c   **** extern volatile int ERROR_IDX;
  27:can_manga.c   **** 
  28:can_manga.c   **** volatile uint8_t CAPACITOR_VOLT = 0;
  29:can_manga.c   **** volatile uint8_t CURTIS_FAULT_CHECK = 0;
  30:can_manga.c   **** volatile uint8_t CURTIS_HEART_BEAT_CHECK = 0;
ARM GAS  C:\Users\Tehya\AppData\Local\Temp\ccYCCPEz.s 			page 2


  31:can_manga.c   **** volatile uint8_t ACK_RX = 0;
  32:can_manga.c   **** volatile uint8_t ERROR_TOLERANCE = 0;
  33:can_manga.c   **** volatile uint8_t ABS_MOTOR_RPM = 0;
  34:can_manga.c   **** volatile uint8_t THROTTLE_HIGH = 0;
  35:can_manga.c   **** volatile uint8_t THROTTLE_LOW = 0;
  36:can_manga.c   **** 
  37:can_manga.c   **** volatile uint8_t ESTOP; //Tehya test
  38:can_manga.c   **** 
  39:can_manga.c   **** volatile uint8_t VOLT_B1;
  40:can_manga.c   **** volatile uint8_t VOLT_B2;
  41:can_manga.c   **** volatile uint8_t VOLT_B3;
  42:can_manga.c   **** volatile uint8_t VOLT_B4;
  43:can_manga.c   **** extern volatile uint32_t voltage;
  44:can_manga.c   **** extern volatile BMS_STATUS bms_status;
  45:can_manga.c   **** 
  46:can_manga.c   **** 
  47:can_manga.c   **** uint8 current_bytes[4] = {0};
  48:can_manga.c   **** 
  49:can_manga.c   **** // returns voltage of capacitor from motor controller
  50:can_manga.c   **** uint8_t getCapacitorVoltage()
  51:can_manga.c   **** {
  28              		.loc 1 51 0
  29              		.cfi_startproc
  30              		@ args = 0, pretend = 0, frame = 0
  31              		@ frame_needed = 0, uses_anonymous_args = 0
  32              		@ link register save eliminated.
  52:can_manga.c   ****     return CAPACITOR_VOLT;
  33              		.loc 1 52 0
  34 0000 014B     		ldr	r3, .L2
  35 0002 1878     		ldrb	r0, [r3]	@ zero_extendqisi2
  53:can_manga.c   **** }
  36              		.loc 1 53 0
  37 0004 7047     		bx	lr
  38              	.L3:
  39 0006 00BF     		.align	2
  40              	.L2:
  41 0008 00000000 		.word	.LANCHOR0
  42              		.cfi_endproc
  43              	.LFE63:
  44              		.size	getCapacitorVoltage, .-getCapacitorVoltage
  45              		.section	.text.getCurtisFaultCheck,"ax",%progbits
  46              		.align	2
  47              		.global	getCurtisFaultCheck
  48              		.thumb
  49              		.thumb_func
  50              		.type	getCurtisFaultCheck, %function
  51              	getCurtisFaultCheck:
  52              	.LFB64:
  54:can_manga.c   **** 
  55:can_manga.c   **** // returns true if there is a fault in motor controller
  56:can_manga.c   **** uint8_t getCurtisFaultCheck()
  57:can_manga.c   **** {
  53              		.loc 1 57 0
  54              		.cfi_startproc
  55              		@ args = 0, pretend = 0, frame = 0
  56              		@ frame_needed = 0, uses_anonymous_args = 0
  57              		@ link register save eliminated.
ARM GAS  C:\Users\Tehya\AppData\Local\Temp\ccYCCPEz.s 			page 3


  58:can_manga.c   ****     return CURTIS_FAULT_CHECK;
  58              		.loc 1 58 0
  59 0000 014B     		ldr	r3, .L5
  60 0002 5878     		ldrb	r0, [r3, #1]	@ zero_extendqisi2
  59:can_manga.c   **** }
  61              		.loc 1 59 0
  62 0004 7047     		bx	lr
  63              	.L6:
  64 0006 00BF     		.align	2
  65              	.L5:
  66 0008 00000000 		.word	.LANCHOR0
  67              		.cfi_endproc
  68              	.LFE64:
  69              		.size	getCurtisFaultCheck, .-getCurtisFaultCheck
  70              		.section	.text.getCurtisHeartBeatCheck,"ax",%progbits
  71              		.align	2
  72              		.global	getCurtisHeartBeatCheck
  73              		.thumb
  74              		.thumb_func
  75              		.type	getCurtisHeartBeatCheck, %function
  76              	getCurtisHeartBeatCheck:
  77              	.LFB65:
  60:can_manga.c   **** 
  61:can_manga.c   **** // returns true if motor controller node is still active
  62:can_manga.c   **** // if node is in active check the fault code using 1314
  63:can_manga.c   **** uint8_t getCurtisHeartBeatCheck()
  64:can_manga.c   **** {
  78              		.loc 1 64 0
  79              		.cfi_startproc
  80              		@ args = 0, pretend = 0, frame = 0
  81              		@ frame_needed = 0, uses_anonymous_args = 0
  82              		@ link register save eliminated.
  65:can_manga.c   ****     return CURTIS_HEART_BEAT_CHECK;
  83              		.loc 1 65 0
  84 0000 014B     		ldr	r3, .L8
  85 0002 9878     		ldrb	r0, [r3, #2]	@ zero_extendqisi2
  66:can_manga.c   **** }
  86              		.loc 1 66 0
  87 0004 7047     		bx	lr
  88              	.L9:
  89 0006 00BF     		.align	2
  90              	.L8:
  91 0008 00000000 		.word	.LANCHOR0
  92              		.cfi_endproc
  93              	.LFE65:
  94              		.size	getCurtisHeartBeatCheck, .-getCurtisHeartBeatCheck
  95              		.section	.text.getAckRx,"ax",%progbits
  96              		.align	2
  97              		.global	getAckRx
  98              		.thumb
  99              		.thumb_func
 100              		.type	getAckRx, %function
 101              	getAckRx:
 102              	.LFB66:
  67:can_manga.c   **** 
  68:can_manga.c   **** // returns 1 always... not sure whats up in the motor controller
  69:can_manga.c   **** uint8_t getAckRx()
ARM GAS  C:\Users\Tehya\AppData\Local\Temp\ccYCCPEz.s 			page 4


  70:can_manga.c   **** {
 103              		.loc 1 70 0
 104              		.cfi_startproc
 105              		@ args = 0, pretend = 0, frame = 0
 106              		@ frame_needed = 0, uses_anonymous_args = 0
 107              		@ link register save eliminated.
  71:can_manga.c   ****     return ACK_RX;
 108              		.loc 1 71 0
 109 0000 014B     		ldr	r3, .L11
 110 0002 D878     		ldrb	r0, [r3, #3]	@ zero_extendqisi2
  72:can_manga.c   **** }
 111              		.loc 1 72 0
 112 0004 7047     		bx	lr
 113              	.L12:
 114 0006 00BF     		.align	2
 115              	.L11:
 116 0008 00000000 		.word	.LANCHOR0
 117              		.cfi_endproc
 118              	.LFE66:
 119              		.size	getAckRx, .-getAckRx
 120              		.section	.text.getErrorTolerance,"ax",%progbits
 121              		.align	2
 122              		.global	getErrorTolerance
 123              		.thumb
 124              		.thumb_func
 125              		.type	getErrorTolerance, %function
 126              	getErrorTolerance:
 127              	.LFB67:
  73:can_manga.c   **** 
  74:can_manga.c   **** // true if break depressed more than 10%
  75:can_manga.c   **** // this value typically used for drive request
  76:can_manga.c   **** uint8_t getErrorTolerance()
  77:can_manga.c   **** {
 128              		.loc 1 77 0
 129              		.cfi_startproc
 130              		@ args = 0, pretend = 0, frame = 0
 131              		@ frame_needed = 0, uses_anonymous_args = 0
 132              		@ link register save eliminated.
  78:can_manga.c   ****     return ERROR_TOLERANCE;
 133              		.loc 1 78 0
 134 0000 014B     		ldr	r3, .L14
 135 0002 1879     		ldrb	r0, [r3, #4]	@ zero_extendqisi2
  79:can_manga.c   **** }
 136              		.loc 1 79 0
 137 0004 7047     		bx	lr
 138              	.L15:
 139 0006 00BF     		.align	2
 140              	.L14:
 141 0008 00000000 		.word	.LANCHOR0
 142              		.cfi_endproc
 143              	.LFE67:
 144              		.size	getErrorTolerance, .-getErrorTolerance
 145              		.section	.text.getABSMotorRPM,"ax",%progbits
 146              		.align	2
 147              		.global	getABSMotorRPM
 148              		.thumb
 149              		.thumb_func
ARM GAS  C:\Users\Tehya\AppData\Local\Temp\ccYCCPEz.s 			page 5


 150              		.type	getABSMotorRPM, %function
 151              	getABSMotorRPM:
 152              	.LFB68:
  80:can_manga.c   **** 
  81:can_manga.c   **** // from motor controller
  82:can_manga.c   **** // look this one up in 1239E manual, im not super sure
  83:can_manga.c   **** uint8_t getABSMotorRPM()
  84:can_manga.c   **** {
 153              		.loc 1 84 0
 154              		.cfi_startproc
 155              		@ args = 0, pretend = 0, frame = 0
 156              		@ frame_needed = 0, uses_anonymous_args = 0
 157              		@ link register save eliminated.
  85:can_manga.c   ****     return ABS_MOTOR_RPM;
 158              		.loc 1 85 0
 159 0000 014B     		ldr	r3, .L17
 160 0002 5879     		ldrb	r0, [r3, #5]	@ zero_extendqisi2
  86:can_manga.c   **** }
 161              		.loc 1 86 0
 162 0004 7047     		bx	lr
 163              	.L18:
 164 0006 00BF     		.align	2
 165              	.L17:
 166 0008 00000000 		.word	.LANCHOR0
 167              		.cfi_endproc
 168              	.LFE68:
 169              		.size	getABSMotorRPM, .-getABSMotorRPM
 170              		.section	.text.getPedalLow,"ax",%progbits
 171              		.align	2
 172              		.global	getPedalLow
 173              		.thumb
 174              		.thumb_func
 175              		.type	getPedalLow, %function
 176              	getPedalLow:
 177              	.LFB69:
  87:can_manga.c   **** 
  88:can_manga.c   **** // throttle is sent in two 8 bit values to create one 16 bit value
  89:can_manga.c   **** // hight and low refer to high and low bit sequences of the whole value
  90:can_manga.c   **** uint8_t getPedalLow()
  91:can_manga.c   **** {
 178              		.loc 1 91 0
 179              		.cfi_startproc
 180              		@ args = 0, pretend = 0, frame = 0
 181              		@ frame_needed = 0, uses_anonymous_args = 0
 182              		@ link register save eliminated.
  92:can_manga.c   ****     return THROTTLE_LOW;
 183              		.loc 1 92 0
 184 0000 014B     		ldr	r3, .L20
 185 0002 9879     		ldrb	r0, [r3, #6]	@ zero_extendqisi2
  93:can_manga.c   **** }
 186              		.loc 1 93 0
 187 0004 7047     		bx	lr
 188              	.L21:
 189 0006 00BF     		.align	2
 190              	.L20:
 191 0008 00000000 		.word	.LANCHOR0
 192              		.cfi_endproc
ARM GAS  C:\Users\Tehya\AppData\Local\Temp\ccYCCPEz.s 			page 6


 193              	.LFE69:
 194              		.size	getPedalLow, .-getPedalLow
 195              		.section	.text.getPedalHigh,"ax",%progbits
 196              		.align	2
 197              		.global	getPedalHigh
 198              		.thumb
 199              		.thumb_func
 200              		.type	getPedalHigh, %function
 201              	getPedalHigh:
 202              	.LFB70:
  94:can_manga.c   **** 
  95:can_manga.c   **** uint8_t getPedalHigh()
  96:can_manga.c   **** {
 203              		.loc 1 96 0
 204              		.cfi_startproc
 205              		@ args = 0, pretend = 0, frame = 0
 206              		@ frame_needed = 0, uses_anonymous_args = 0
 207              		@ link register save eliminated.
  97:can_manga.c   ****     return THROTTLE_HIGH;
 208              		.loc 1 97 0
 209 0000 014B     		ldr	r3, .L23
 210 0002 D879     		ldrb	r0, [r3, #7]	@ zero_extendqisi2
  98:can_manga.c   **** }
 211              		.loc 1 98 0
 212 0004 7047     		bx	lr
 213              	.L24:
 214 0006 00BF     		.align	2
 215              	.L23:
 216 0008 00000000 		.word	.LANCHOR0
 217              		.cfi_endproc
 218              	.LFE70:
 219              		.size	getPedalHigh, .-getPedalHigh
 220              		.section	.text.getEStop,"ax",%progbits
 221              		.align	2
 222              		.global	getEStop
 223              		.thumb
 224              		.thumb_func
 225              		.type	getEStop, %function
 226              	getEStop:
 227              	.LFB71:
  99:can_manga.c   **** 
 100:can_manga.c   **** //Tehya test
 101:can_manga.c   **** //will be a 1 if the estop was pressed (I'm making it a special case because I want to test rn)
 102:can_manga.c   **** uint8_t getEStop()
 103:can_manga.c   **** {
 228              		.loc 1 103 0
 229              		.cfi_startproc
 230              		@ args = 0, pretend = 0, frame = 0
 231              		@ frame_needed = 0, uses_anonymous_args = 0
 232              		@ link register save eliminated.
 104:can_manga.c   ****     return ESTOP;
 233              		.loc 1 104 0
 234 0000 014B     		ldr	r3, .L26
 235 0002 1878     		ldrb	r0, [r3]	@ zero_extendqisi2
 105:can_manga.c   **** }
 236              		.loc 1 105 0
 237 0004 7047     		bx	lr
ARM GAS  C:\Users\Tehya\AppData\Local\Temp\ccYCCPEz.s 			page 7


 238              	.L27:
 239 0006 00BF     		.align	2
 240              	.L26:
 241 0008 00000000 		.word	ESTOP
 242              		.cfi_endproc
 243              	.LFE71:
 244              		.size	getEStop, .-getEStop
 245              		.section	.text.can_test_send,"ax",%progbits
 246              		.align	2
 247              		.global	can_test_send
 248              		.thumb
 249              		.thumb_func
 250              		.type	can_test_send, %function
 251              	can_test_send:
 252              	.LFB73:
 106:can_manga.c   **** 
 107:can_manga.c   **** // called from CAN_TX_RX_func.c in the generic RX func
 108:can_manga.c   **** // tldr: part of an interrupt service routine
 109:can_manga.c   **** void can_receive(uint8_t *msg, int ID)
 110:can_manga.c   **** {
 111:can_manga.c   ****     uint8 InterruptState = CyEnterCriticalSection();
 112:can_manga.c   ****     
 113:can_manga.c   ****     
 114:can_manga.c   ****     uint8_t data[8];
 115:can_manga.c   ****     int i = 0;
 116:can_manga.c   ****     for (i = 0; i < 8; i++)
 117:can_manga.c   ****         data[i] = msg[i];
 118:can_manga.c   ****         
 119:can_manga.c   ****     switch (ID) 
 120:can_manga.c   ****     {
 121:can_manga.c   ****         case 0x0566: // Curtis Status
 122:can_manga.c   ****             CAPACITOR_VOLT = msg[CAN_DATA_BYTE_1];
 123:can_manga.c   ****             ABS_MOTOR_RPM = msg[CAN_DATA_BYTE_5];
 124:can_manga.c   ****             break;
 125:can_manga.c   ****         case 0xA6:  // errors sent from MC node
 126:can_manga.c   ****             CURTIS_FAULT_CHECK = 0x1;
 127:can_manga.c   ****             break;
 128:can_manga.c   ****         case 0x726:     // from motor controller to confirm that node is still active
 129:can_manga.c   ****             CURTIS_HEART_BEAT_CHECK = 0x1;
 130:can_manga.c   ****             break;
 131:can_manga.c   ****         case 0x0666:    // pdoAwk from motor controller
 132:can_manga.c   ****             ACK_RX = msg[CAN_DATA_BYTE_1];
 133:can_manga.c   ****             break;
 134:can_manga.c   ****         case 0x0201:    // BSPD (brake position from pedal node)
 135:can_manga.c   ****             ERROR_TOLERANCE = msg[CAN_DATA_BYTE_1];
 136:can_manga.c   ****             BSPD_CATCH = msg[CAN_DATA_BYTE_5];
 137:can_manga.c   ****             break;
 138:can_manga.c   ****         case 0x0200:    // throttle
 139:can_manga.c   ****             pedalOK = 0x0;
 140:can_manga.c   ****             THROTTLE_HIGH = data[CAN_DATA_BYTE_2];
 141:can_manga.c   ****             THROTTLE_LOW = data[CAN_DATA_BYTE_3];
 142:can_manga.c   ****             break;
 143:can_manga.c   ****         case 0x388:    // BMS voltage data 
 144:can_manga.c   ****             VOLT_B4 = data[CAN_DATA_BYTE_5];
 145:can_manga.c   ****             VOLT_B3 = data[CAN_DATA_BYTE_6];
 146:can_manga.c   ****             VOLT_B2 = data[CAN_DATA_BYTE_7];
 147:can_manga.c   ****             VOLT_B1 = data[CAN_DATA_BYTE_8];
ARM GAS  C:\Users\Tehya\AppData\Local\Temp\ccYCCPEz.s 			page 8


 148:can_manga.c   ****             voltage = (VOLT_B4 << 24) | (VOLT_B3 << 16) | (VOLT_B2 << 8) | VOLT_B1; 
 149:can_manga.c   ****             break;
 150:can_manga.c   ****         case 0x0488:   // BMS Temp data
 151:can_manga.c   ****             ERROR_IDX = data[CAN_DATA_BYTE_6];
 152:can_manga.c   ****             ERROR_NODE = data[CAN_DATA_BYTE_7];
 153:can_manga.c   ****             PACK_TEMP = data[CAN_DATA_BYTE_8];
 154:can_manga.c   ****             tempAttenuate();
 155:can_manga.c   ****             break;
 156:can_manga.c   ****         case 0x521: // current data from IVT
 157:can_manga.c   ****             current_bytes[0] = data[CAN_DATA_BYTE_3];
 158:can_manga.c   ****             current_bytes[1] = data[CAN_DATA_BYTE_4];
 159:can_manga.c   ****             current_bytes[2] = data[CAN_DATA_BYTE_5];
 160:can_manga.c   ****             current_bytes[3] = data[CAN_DATA_BYTE_6];
 161:can_manga.c   ****             CURRENT = (current_bytes[0] << 24) + (current_bytes[1] << 16) + (current_bytes[2] << 8)
 162:can_manga.c   ****             break;
 163:can_manga.c   ****         case 0x188:
 164:can_manga.c   ****             bms_status = (data[CAN_DATA_BYTE_3] << 8) | data[CAN_DATA_BYTE_4];  
 165:can_manga.c   ****             break;
 166:can_manga.c   ****         case 0x366: //Tehya test
 167:can_manga.c   ****             ESTOP = data[CAN_DATA_BYTE_1];
 168:can_manga.c   ****             break;
 169:can_manga.c   ****     }
 170:can_manga.c   ****     
 171:can_manga.c   ****     CyExitCriticalSection(InterruptState);
 172:can_manga.c   **** }
 173:can_manga.c   **** 
 174:can_manga.c   **** void can_test_send()
 175:can_manga.c   **** {
 253              		.loc 1 175 0
 254              		.cfi_startproc
 255              		@ args = 0, pretend = 0, frame = 16
 256              		@ frame_needed = 0, uses_anonymous_args = 0
 257 0000 00B5     		push	{lr}
 258              		.cfi_def_cfa_offset 4
 259              		.cfi_offset 14, -4
 260 0002 85B0     		sub	sp, sp, #20
 261              		.cfi_def_cfa_offset 24
 176:can_manga.c   ****     //CAN_1_DATA_BYTES_MSG msg;
 177:can_manga.c   ****     CAN_TX_MSG HeartB;
 178:can_manga.c   ****     
 179:can_manga.c   ****     HeartB.id = 0x300;
 262              		.loc 1 179 0
 263 0004 4FF44073 		mov	r3, #768
 264 0008 0193     		str	r3, [sp, #4]
 180:can_manga.c   ****     HeartB.rtr = 0;
 265              		.loc 1 180 0
 266 000a 0022     		movs	r2, #0
 267 000c 8DF80820 		strb	r2, [sp, #8]
 181:can_manga.c   ****     HeartB.ide = 0;
 268              		.loc 1 181 0
 269 0010 8DF80920 		strb	r2, [sp, #9]
 182:can_manga.c   ****     HeartB.dlc = 1;
 270              		.loc 1 182 0
 271 0014 0123     		movs	r3, #1
 272 0016 8DF80A30 		strb	r3, [sp, #10]
 183:can_manga.c   ****     
 184:can_manga.c   ****     HeartB.irq = 0;
ARM GAS  C:\Users\Tehya\AppData\Local\Temp\ccYCCPEz.s 			page 9


 273              		.loc 1 184 0
 274 001a 8DF80B20 		strb	r2, [sp, #11]
 185:can_manga.c   ****     
 186:can_manga.c   ****     HeartB.msg->byte[0] = (uint8) 1;
 275              		.loc 1 186 0
 276 001e 039A     		ldr	r2, [sp, #12]
 277 0020 1370     		strb	r3, [r2]
 187:can_manga.c   ****     HeartB.msg->byte[1] = (uint8) 1;
 278              		.loc 1 187 0
 279 0022 039A     		ldr	r2, [sp, #12]
 280 0024 5370     		strb	r3, [r2, #1]
 188:can_manga.c   ****     HeartB.msg->byte[2] = (uint8) 1;
 281              		.loc 1 188 0
 282 0026 039A     		ldr	r2, [sp, #12]
 283 0028 9370     		strb	r3, [r2, #2]
 189:can_manga.c   ****     HeartB.msg->byte[3] = (uint8) 1;
 284              		.loc 1 189 0
 285 002a 039A     		ldr	r2, [sp, #12]
 286 002c D370     		strb	r3, [r2, #3]
 190:can_manga.c   ****     HeartB.msg->byte[4] = (uint8) 1;
 287              		.loc 1 190 0
 288 002e 039A     		ldr	r2, [sp, #12]
 289 0030 1371     		strb	r3, [r2, #4]
 191:can_manga.c   ****     HeartB.msg->byte[5] = (uint8) 1;
 290              		.loc 1 191 0
 291 0032 039A     		ldr	r2, [sp, #12]
 292 0034 5371     		strb	r3, [r2, #5]
 192:can_manga.c   ****     HeartB.msg->byte[6] = (uint8) 1;
 293              		.loc 1 192 0
 294 0036 039A     		ldr	r2, [sp, #12]
 295 0038 9371     		strb	r3, [r2, #6]
 193:can_manga.c   ****     HeartB.msg->byte[7] = (uint8) 1;
 296              		.loc 1 193 0
 297 003a 039A     		ldr	r2, [sp, #12]
 298 003c D371     		strb	r3, [r2, #7]
 194:can_manga.c   ****     
 195:can_manga.c   ****     CAN_SendMsg(&HeartB);
 299              		.loc 1 195 0
 300 003e 01A8     		add	r0, sp, #4
 301 0040 FFF7FEFF 		bl	CAN_SendMsg
 302              	.LVL0:
 196:can_manga.c   **** }
 303              		.loc 1 196 0
 304 0044 05B0     		add	sp, sp, #20
 305              		.cfi_def_cfa_offset 4
 306              		@ sp needed
 307 0046 5DF804FB 		ldr	pc, [sp], #4
 308              		.cfi_endproc
 309              	.LFE73:
 310              		.size	can_test_send, .-can_test_send
 311 004a 00BF     		.section	.text.can_send,"ax",%progbits
 312              		.align	2
 313              		.global	can_send
 314              		.thumb
 315              		.thumb_func
 316              		.type	can_send, %function
 317              	can_send:
ARM GAS  C:\Users\Tehya\AppData\Local\Temp\ccYCCPEz.s 			page 10


 318              	.LFB74:
 197:can_manga.c   **** 
 198:can_manga.c   **** void can_send(uint8_t data[8], uint32_t ID)
 199:can_manga.c   **** {
 319              		.loc 1 199 0
 320              		.cfi_startproc
 321              		@ args = 0, pretend = 0, frame = 24
 322              		@ frame_needed = 0, uses_anonymous_args = 0
 323              	.LVL1:
 324 0000 00B5     		push	{lr}
 325              		.cfi_def_cfa_offset 4
 326              		.cfi_offset 14, -4
 327 0002 87B0     		sub	sp, sp, #28
 328              		.cfi_def_cfa_offset 32
 200:can_manga.c   ****     uint8_t i;
 201:can_manga.c   **** 	CAN_TX_MSG message;
 202:can_manga.c   **** 	CAN_DATA_BYTES_MSG payload;
 203:can_manga.c   **** 	message.id = ID; 
 329              		.loc 1 203 0
 330 0004 0391     		str	r1, [sp, #12]
 204:can_manga.c   **** 	message.rtr = 0;
 331              		.loc 1 204 0
 332 0006 0023     		movs	r3, #0
 333 0008 8DF81030 		strb	r3, [sp, #16]
 205:can_manga.c   **** 	message.ide = 0;
 334              		.loc 1 205 0
 335 000c 8DF81130 		strb	r3, [sp, #17]
 206:can_manga.c   **** 	message.dlc = 0x08;
 336              		.loc 1 206 0
 337 0010 0822     		movs	r2, #8
 338 0012 8DF81220 		strb	r2, [sp, #18]
 207:can_manga.c   **** 	message.irq = 0;
 339              		.loc 1 207 0
 340 0016 8DF81330 		strb	r3, [sp, #19]
 208:can_manga.c   **** 	message.msg = &payload;
 341              		.loc 1 208 0
 342 001a 01AA     		add	r2, sp, #4
 343 001c 0592     		str	r2, [sp, #20]
 344              	.LVL2:
 209:can_manga.c   **** 	for(i=0;i<8;i++)
 345              		.loc 1 209 0
 346 001e 06E0     		b	.L31
 347              	.LVL3:
 348              	.L32:
 210:can_manga.c   **** 		payload.byte[i] = data[i];
 349              		.loc 1 210 0 discriminator 3
 350 0020 C15C     		ldrb	r1, [r0, r3]	@ zero_extendqisi2
 351 0022 06AA     		add	r2, sp, #24
 352 0024 1A44     		add	r2, r2, r3
 353 0026 02F8141C 		strb	r1, [r2, #-20]
 209:can_manga.c   **** 	for(i=0;i<8;i++)
 354              		.loc 1 209 0 discriminator 3
 355 002a 0133     		adds	r3, r3, #1
 356              	.LVL4:
 357 002c DBB2     		uxtb	r3, r3
 358              	.LVL5:
 359              	.L31:
ARM GAS  C:\Users\Tehya\AppData\Local\Temp\ccYCCPEz.s 			page 11


 209:can_manga.c   **** 	for(i=0;i<8;i++)
 360              		.loc 1 209 0 is_stmt 0 discriminator 1
 361 002e 072B     		cmp	r3, #7
 362 0030 F6D9     		bls	.L32
 211:can_manga.c   **** 	CAN_SendMsg(&message); 
 363              		.loc 1 211 0 is_stmt 1
 364 0032 03A8     		add	r0, sp, #12
 365              	.LVL6:
 366 0034 FFF7FEFF 		bl	CAN_SendMsg
 367              	.LVL7:
 212:can_manga.c   **** }
 368              		.loc 1 212 0
 369 0038 07B0     		add	sp, sp, #28
 370              		.cfi_def_cfa_offset 4
 371              		@ sp needed
 372 003a 5DF804FB 		ldr	pc, [sp], #4
 373              		.cfi_endproc
 374              	.LFE74:
 375              		.size	can_send, .-can_send
 376 003e 00BF     		.section	.text.can_send_status,"ax",%progbits
 377              		.align	2
 378              		.global	can_send_status
 379              		.thumb
 380              		.thumb_func
 381              		.type	can_send_status, %function
 382              	can_send_status:
 383              	.LFB75:
 213:can_manga.c   **** 
 214:can_manga.c   **** void can_send_status(
 215:can_manga.c   ****     uint8_t state,
 216:can_manga.c   ****     uint8_t errorState)
 217:can_manga.c   **** {
 384              		.loc 1 217 0
 385              		.cfi_startproc
 386              		@ args = 0, pretend = 0, frame = 8
 387              		@ frame_needed = 0, uses_anonymous_args = 0
 388              	.LVL8:
 389 0000 00B5     		push	{lr}
 390              		.cfi_def_cfa_offset 4
 391              		.cfi_offset 14, -4
 392 0002 83B0     		sub	sp, sp, #12
 393              		.cfi_def_cfa_offset 16
 218:can_manga.c   ****     //max and min voltage means the voltage of single cell
 219:can_manga.c   ****         uint8_t data[8];
 220:can_manga.c   ****         
 221:can_manga.c   ****         data[0] = state;
 394              		.loc 1 221 0
 395 0004 8DF80000 		strb	r0, [sp]
 222:can_manga.c   ****         data[1] = errorState;
 396              		.loc 1 222 0
 397 0008 8DF80110 		strb	r1, [sp, #1]
 223:can_manga.c   ****         
 224:can_manga.c   ****         data[2] = 0;
 398              		.loc 1 224 0
 399 000c 0023     		movs	r3, #0
 400 000e 8DF80230 		strb	r3, [sp, #2]
 225:can_manga.c   ****         data[3] = 0;
ARM GAS  C:\Users\Tehya\AppData\Local\Temp\ccYCCPEz.s 			page 12


 401              		.loc 1 225 0
 402 0012 8DF80330 		strb	r3, [sp, #3]
 226:can_manga.c   ****         
 227:can_manga.c   ****         data[4] = 0;
 403              		.loc 1 227 0
 404 0016 8DF80430 		strb	r3, [sp, #4]
 228:can_manga.c   ****         data[5] = 0;
 405              		.loc 1 228 0
 406 001a 8DF80530 		strb	r3, [sp, #5]
 229:can_manga.c   ****         data[6] = 0;
 407              		.loc 1 229 0
 408 001e 8DF80630 		strb	r3, [sp, #6]
 230:can_manga.c   ****         data[7] = 0;
 409              		.loc 1 230 0
 410 0022 8DF80730 		strb	r3, [sp, #7]
 231:can_manga.c   **** 
 232:can_manga.c   ****         can_send(data, 0x626);
 411              		.loc 1 232 0
 412 0026 40F22661 		movw	r1, #1574
 413              	.LVL9:
 414 002a 6846     		mov	r0, sp
 415              	.LVL10:
 416 002c FFF7FEFF 		bl	can_send
 417              	.LVL11:
 233:can_manga.c   **** 
 234:can_manga.c   ****         
 235:can_manga.c   **** } // can_send_status()
 418              		.loc 1 235 0
 419 0030 03B0     		add	sp, sp, #12
 420              		.cfi_def_cfa_offset 4
 421              		@ sp needed
 422 0032 5DF804FB 		ldr	pc, [sp], #4
 423              		.cfi_endproc
 424              	.LFE75:
 425              		.size	can_send_status, .-can_send_status
 426 0036 00BF     		.section	.text.can_send_cmd,"ax",%progbits
 427              		.align	2
 428              		.global	can_send_cmd
 429              		.thumb
 430              		.thumb_func
 431              		.type	can_send_cmd, %function
 432              	can_send_cmd:
 433              	.LFB76:
 236:can_manga.c   **** 
 237:can_manga.c   **** void can_send_cmd(
 238:can_manga.c   ****     uint8_t SetInterlock,
 239:can_manga.c   ****     uint16_t VCL_Throttle_High,
 240:can_manga.c   ****     uint16_t VCL_Throttle_Low
 241:can_manga.c   **** )
 242:can_manga.c   **** {
 434              		.loc 1 242 0
 435              		.cfi_startproc
 436              		@ args = 0, pretend = 0, frame = 8
 437              		@ frame_needed = 0, uses_anonymous_args = 0
 438              	.LVL12:
 439 0000 00B5     		push	{lr}
 440              		.cfi_def_cfa_offset 4
ARM GAS  C:\Users\Tehya\AppData\Local\Temp\ccYCCPEz.s 			page 13


 441              		.cfi_offset 14, -4
 442 0002 83B0     		sub	sp, sp, #12
 443              		.cfi_def_cfa_offset 16
 243:can_manga.c   ****     //max and min voltage means the voltage of single cell
 244:can_manga.c   ****         
 245:can_manga.c   ****         uint8_t data[8];
 246:can_manga.c   ****         
 247:can_manga.c   ****         data[0] = SetInterlock;
 444              		.loc 1 247 0
 445 0004 8DF80000 		strb	r0, [sp]
 248:can_manga.c   ****         
 249:can_manga.c   ****         data[1] = VCL_Throttle_High;
 446              		.loc 1 249 0
 447 0008 8DF80110 		strb	r1, [sp, #1]
 250:can_manga.c   ****         data[2] = VCL_Throttle_Low;
 448              		.loc 1 250 0
 449 000c 8DF80220 		strb	r2, [sp, #2]
 251:can_manga.c   ****         
 252:can_manga.c   ****         data[3] = 0;
 450              		.loc 1 252 0
 451 0010 0023     		movs	r3, #0
 452 0012 8DF80330 		strb	r3, [sp, #3]
 253:can_manga.c   ****         data[4] = 0;
 453              		.loc 1 253 0
 454 0016 8DF80430 		strb	r3, [sp, #4]
 254:can_manga.c   ****         
 255:can_manga.c   ****         data[5] = 0;
 455              		.loc 1 255 0
 456 001a 8DF80530 		strb	r3, [sp, #5]
 256:can_manga.c   ****         data[6] = 0;
 457              		.loc 1 256 0
 458 001e 8DF80630 		strb	r3, [sp, #6]
 257:can_manga.c   ****         data[7] = 0;
 459              		.loc 1 257 0
 460 0022 8DF80730 		strb	r3, [sp, #7]
 258:can_manga.c   **** 
 259:can_manga.c   ****         can_send(data, 0x766);
 461              		.loc 1 259 0
 462 0026 40F26671 		movw	r1, #1894
 463              	.LVL13:
 464 002a 6846     		mov	r0, sp
 465              	.LVL14:
 466 002c FFF7FEFF 		bl	can_send
 467              	.LVL15:
 260:can_manga.c   ****         CyDelay(1); // Wtf is this shit?
 468              		.loc 1 260 0
 469 0030 0120     		movs	r0, #1
 470 0032 FFF7FEFF 		bl	CyDelay
 471              	.LVL16:
 261:can_manga.c   **** 
 262:can_manga.c   **** } // can_send_cmd()
 472              		.loc 1 262 0
 473 0036 03B0     		add	sp, sp, #12
 474              		.cfi_def_cfa_offset 4
 475              		@ sp needed
 476 0038 5DF804FB 		ldr	pc, [sp], #4
 477              		.cfi_endproc
ARM GAS  C:\Users\Tehya\AppData\Local\Temp\ccYCCPEz.s 			page 14


 478              	.LFE76:
 479              		.size	can_send_cmd, .-can_send_cmd
 480              		.section	.text.can_send_charge,"ax",%progbits
 481              		.align	2
 482              		.global	can_send_charge
 483              		.thumb
 484              		.thumb_func
 485              		.type	can_send_charge, %function
 486              	can_send_charge:
 487              	.LFB77:
 263:can_manga.c   **** 
 264:can_manga.c   **** void can_send_charge(uint8_t charge, uint8_t save_soc) {
 488              		.loc 1 264 0
 489              		.cfi_startproc
 490              		@ args = 0, pretend = 0, frame = 8
 491              		@ frame_needed = 0, uses_anonymous_args = 0
 492              	.LVL17:
 493 0000 00B5     		push	{lr}
 494              		.cfi_def_cfa_offset 4
 495              		.cfi_offset 14, -4
 496 0002 83B0     		sub	sp, sp, #12
 497              		.cfi_def_cfa_offset 16
 265:can_manga.c   ****     uint8_t data[8] = {0};
 498              		.loc 1 265 0
 499 0004 0023     		movs	r3, #0
 500 0006 0093     		str	r3, [sp]
 501 0008 0193     		str	r3, [sp, #4]
 266:can_manga.c   ****     data[0] = charge;
 502              		.loc 1 266 0
 503 000a 8DF80000 		strb	r0, [sp]
 267:can_manga.c   ****     data[1] = save_soc;
 504              		.loc 1 267 0
 505 000e 8DF80110 		strb	r1, [sp, #1]
 268:can_manga.c   ****     
 269:can_manga.c   ****     can_send(data, 0x389);
 506              		.loc 1 269 0
 507 0012 40F28931 		movw	r1, #905
 508              	.LVL18:
 509 0016 6846     		mov	r0, sp
 510              	.LVL19:
 511 0018 FFF7FEFF 		bl	can_send
 512              	.LVL20:
 270:can_manga.c   **** }
 513              		.loc 1 270 0
 514 001c 03B0     		add	sp, sp, #12
 515              		.cfi_def_cfa_offset 4
 516              		@ sp needed
 517 001e 5DF804FB 		ldr	pc, [sp], #4
 518              		.cfi_endproc
 519              	.LFE77:
 520              		.size	can_send_charge, .-can_send_charge
 521              		.global	__aeabi_ddiv
 522 0022 00BF     		.section	.text.tempAttenuate,"ax",%progbits
 523              		.align	2
 524              		.global	tempAttenuate
 525              		.thumb
 526              		.thumb_func
ARM GAS  C:\Users\Tehya\AppData\Local\Temp\ccYCCPEz.s 			page 15


 527              		.type	tempAttenuate, %function
 528              	tempAttenuate:
 529              	.LFB78:
 271:can_manga.c   **** 
 272:can_manga.c   **** void tempAttenuate() {
 530              		.loc 1 272 0
 531              		.cfi_startproc
 532              		@ args = 0, pretend = 0, frame = 0
 533              		@ frame_needed = 0, uses_anonymous_args = 0
 534 0000 08B5     		push	{r3, lr}
 535              		.cfi_def_cfa_offset 8
 536              		.cfi_offset 3, -8
 537              		.cfi_offset 14, -4
 273:can_manga.c   ****     int t = PACK_TEMP - 50;
 538              		.loc 1 273 0
 539 0002 134B     		ldr	r3, .L45
 540 0004 1B78     		ldrb	r3, [r3]	@ zero_extendqisi2
 541              	.LVL21:
 274:can_manga.c   ****     if (t < 0) {
 542              		.loc 1 274 0
 543 0006 323B     		subs	r3, r3, #50
 544              	.LVL22:
 545 0008 05D5     		bpl	.L41
 275:can_manga.c   ****         THROTTLE_MULTIPLIER = 1;   
 546              		.loc 1 275 0
 547 000a 0020     		movs	r0, #0
 548 000c 1149     		ldr	r1, .L45+4
 549 000e 124B     		ldr	r3, .L45+8
 550              	.LVL23:
 551 0010 C3E90001 		strd	r0, [r3]
 552 0014 08BD     		pop	{r3, pc}
 553              	.LVL24:
 554              	.L41:
 276:can_manga.c   ****     } else if (t < 8) {
 555              		.loc 1 276 0
 556 0016 072B     		cmp	r3, #7
 557 0018 0CDC     		bgt	.L43
 277:can_manga.c   ****         THROTTLE_MULTIPLIER = THROTTLE_MAP[t] / 100.0; 
 558              		.loc 1 277 0
 559 001a 1049     		ldr	r1, .L45+12
 560 001c 01EBC301 		add	r1, r1, r3, lsl #3
 561 0020 0022     		movs	r2, #0
 562 0022 0F4B     		ldr	r3, .L45+16
 563              	.LVL25:
 564 0024 D1E90001 		ldrd	r0, [r1]
 565 0028 FFF7FEFF 		bl	__aeabi_ddiv
 566              	.LVL26:
 567 002c 0A4B     		ldr	r3, .L45+8
 568 002e C3E90001 		strd	r0, [r3]
 569 0032 08BD     		pop	{r3, pc}
 570              	.LVL27:
 571              	.L43:
 278:can_manga.c   ****     } else if (t >= 8) {
 572              		.loc 1 278 0
 573 0034 072B     		cmp	r3, #7
 574 0036 09DD     		ble	.L40
 279:can_manga.c   ****         THROTTLE_MULTIPLIER = THROTTLE_MAP[7] / 100.0; 
ARM GAS  C:\Users\Tehya\AppData\Local\Temp\ccYCCPEz.s 			page 16


 575              		.loc 1 279 0
 576 0038 0022     		movs	r2, #0
 577 003a 094B     		ldr	r3, .L45+16
 578              	.LVL28:
 579 003c 0749     		ldr	r1, .L45+12
 580 003e D1E90E01 		ldrd	r0, [r1, #56]
 581 0042 FFF7FEFF 		bl	__aeabi_ddiv
 582              	.LVL29:
 583 0046 044B     		ldr	r3, .L45+8
 584 0048 C3E90001 		strd	r0, [r3]
 585              	.L40:
 586 004c 08BD     		pop	{r3, pc}
 587              	.L46:
 588 004e 00BF     		.align	2
 589              	.L45:
 590 0050 00000000 		.word	PACK_TEMP
 591 0054 0000F03F 		.word	1072693248
 592 0058 00000000 		.word	THROTTLE_MULTIPLIER
 593 005c 00000000 		.word	THROTTLE_MAP
 594 0060 00005940 		.word	1079574528
 595              		.cfi_endproc
 596              	.LFE78:
 597              		.size	tempAttenuate, .-tempAttenuate
 598              		.section	.text.can_receive,"ax",%progbits
 599              		.align	2
 600              		.global	can_receive
 601              		.thumb
 602              		.thumb_func
 603              		.type	can_receive, %function
 604              	can_receive:
 605              	.LFB72:
 110:can_manga.c   ****     uint8 InterruptState = CyEnterCriticalSection();
 606              		.loc 1 110 0
 607              		.cfi_startproc
 608              		@ args = 0, pretend = 0, frame = 8
 609              		@ frame_needed = 0, uses_anonymous_args = 0
 610              	.LVL30:
 611 0000 70B5     		push	{r4, r5, r6, lr}
 612              		.cfi_def_cfa_offset 16
 613              		.cfi_offset 4, -16
 614              		.cfi_offset 5, -12
 615              		.cfi_offset 6, -8
 616              		.cfi_offset 14, -4
 617 0002 82B0     		sub	sp, sp, #8
 618              		.cfi_def_cfa_offset 24
 619 0004 0446     		mov	r4, r0
 620 0006 0D46     		mov	r5, r1
 111:can_manga.c   ****     
 621              		.loc 1 111 0
 622 0008 FFF7FEFF 		bl	CyEnterCriticalSection
 623              	.LVL31:
 624 000c 0646     		mov	r6, r0
 625              	.LVL32:
 116:can_manga.c   ****         data[i] = msg[i];
 626              		.loc 1 116 0
 627 000e 0023     		movs	r3, #0
 628 0010 05E0     		b	.L48
ARM GAS  C:\Users\Tehya\AppData\Local\Temp\ccYCCPEz.s 			page 17


 629              	.LVL33:
 630              	.L49:
 117:can_manga.c   ****         
 631              		.loc 1 117 0 discriminator 3
 632 0012 E15C     		ldrb	r1, [r4, r3]	@ zero_extendqisi2
 633 0014 02AA     		add	r2, sp, #8
 634 0016 1A44     		add	r2, r2, r3
 635 0018 02F8081C 		strb	r1, [r2, #-8]
 116:can_manga.c   ****         data[i] = msg[i];
 636              		.loc 1 116 0 discriminator 3
 637 001c 0133     		adds	r3, r3, #1
 638              	.LVL34:
 639              	.L48:
 116:can_manga.c   ****         data[i] = msg[i];
 640              		.loc 1 116 0 is_stmt 0 discriminator 1
 641 001e 072B     		cmp	r3, #7
 642 0020 F7DD     		ble	.L49
 119:can_manga.c   ****     {
 643              		.loc 1 119 0 is_stmt 1
 644 0022 B5F5627F 		cmp	r5, #904
 645 0026 4FD0     		beq	.L51
 646 0028 14DC     		bgt	.L52
 647 002a B5F5007F 		cmp	r5, #512
 648 002e 40D0     		beq	.L53
 649 0030 06DC     		bgt	.L54
 650 0032 A62D     		cmp	r5, #166
 651 0034 2AD0     		beq	.L55
 652 0036 B5F5C47F 		cmp	r5, #392
 653 003a 00F08780 		beq	.L56
 654 003e 92E0     		b	.L50
 655              	.L54:
 656 0040 40F20123 		movw	r3, #513
 657              	.LVL35:
 658 0044 9D42     		cmp	r5, r3
 659 0046 2DD0     		beq	.L57
 660 0048 40F26633 		movw	r3, #870
 661 004c 9D42     		cmp	r5, r3
 662 004e 00F08680 		beq	.L58
 663 0052 88E0     		b	.L50
 664              	.LVL36:
 665              	.L52:
 666 0054 40F26653 		movw	r3, #1382
 667              	.LVL37:
 668 0058 9D42     		cmp	r5, r3
 669 005a 11D0     		beq	.L59
 670 005c 07DC     		bgt	.L60
 671 005e B5F5916F 		cmp	r5, #1160
 672 0062 4ED0     		beq	.L61
 673 0064 40F22153 		movw	r3, #1313
 674 0068 9D42     		cmp	r5, r3
 675 006a 59D0     		beq	.L62
 676 006c 7BE0     		b	.L50
 677              	.L60:
 678 006e 40F26663 		movw	r3, #1638
 679 0072 9D42     		cmp	r5, r3
 680 0074 12D0     		beq	.L63
 681 0076 40F22673 		movw	r3, #1830
ARM GAS  C:\Users\Tehya\AppData\Local\Temp\ccYCCPEz.s 			page 18


 682 007a 9D42     		cmp	r5, r3
 683 007c 0AD0     		beq	.L64
 684 007e 72E0     		b	.L50
 685              	.L59:
 122:can_manga.c   ****             ABS_MOTOR_RPM = msg[CAN_DATA_BYTE_5];
 686              		.loc 1 122 0
 687 0080 E278     		ldrb	r2, [r4, #3]	@ zero_extendqisi2
 688 0082 3B4B     		ldr	r3, .L66
 689 0084 1A70     		strb	r2, [r3]
 123:can_manga.c   ****             break;
 690              		.loc 1 123 0
 691 0086 E279     		ldrb	r2, [r4, #7]	@ zero_extendqisi2
 692 0088 5A71     		strb	r2, [r3, #5]
 124:can_manga.c   ****         case 0xA6:  // errors sent from MC node
 693              		.loc 1 124 0
 694 008a 6CE0     		b	.L50
 695              	.LVL38:
 696              	.L55:
 126:can_manga.c   ****             break;
 697              		.loc 1 126 0
 698 008c 0122     		movs	r2, #1
 699 008e 384B     		ldr	r3, .L66
 700              	.LVL39:
 701 0090 5A70     		strb	r2, [r3, #1]
 127:can_manga.c   ****         case 0x726:     // from motor controller to confirm that node is still active
 702              		.loc 1 127 0
 703 0092 68E0     		b	.L50
 704              	.L64:
 129:can_manga.c   ****             break;
 705              		.loc 1 129 0
 706 0094 0122     		movs	r2, #1
 707 0096 364B     		ldr	r3, .L66
 708 0098 9A70     		strb	r2, [r3, #2]
 130:can_manga.c   ****         case 0x0666:    // pdoAwk from motor controller
 709              		.loc 1 130 0
 710 009a 64E0     		b	.L50
 711              	.L63:
 132:can_manga.c   ****             break;
 712              		.loc 1 132 0
 713 009c E278     		ldrb	r2, [r4, #3]	@ zero_extendqisi2
 714 009e 344B     		ldr	r3, .L66
 715 00a0 DA70     		strb	r2, [r3, #3]
 133:can_manga.c   ****         case 0x0201:    // BSPD (brake position from pedal node)
 716              		.loc 1 133 0
 717 00a2 60E0     		b	.L50
 718              	.L57:
 135:can_manga.c   ****             BSPD_CATCH = msg[CAN_DATA_BYTE_5];
 719              		.loc 1 135 0
 720 00a4 E278     		ldrb	r2, [r4, #3]	@ zero_extendqisi2
 721 00a6 324B     		ldr	r3, .L66
 722 00a8 1A71     		strb	r2, [r3, #4]
 136:can_manga.c   ****             break;
 723              		.loc 1 136 0
 724 00aa E279     		ldrb	r2, [r4, #7]	@ zero_extendqisi2
 725 00ac 314B     		ldr	r3, .L66+4
 726 00ae 1A70     		strb	r2, [r3]
 137:can_manga.c   ****         case 0x0200:    // throttle
ARM GAS  C:\Users\Tehya\AppData\Local\Temp\ccYCCPEz.s 			page 19


 727              		.loc 1 137 0
 728 00b0 59E0     		b	.L50
 729              	.LVL40:
 730              	.L53:
 139:can_manga.c   ****             THROTTLE_HIGH = data[CAN_DATA_BYTE_2];
 731              		.loc 1 139 0
 732 00b2 0022     		movs	r2, #0
 733 00b4 304B     		ldr	r3, .L66+8
 734              	.LVL41:
 735 00b6 1A60     		str	r2, [r3]
 140:can_manga.c   ****             THROTTLE_LOW = data[CAN_DATA_BYTE_3];
 736              		.loc 1 140 0
 737 00b8 9DF80220 		ldrb	r2, [sp, #2]	@ zero_extendqisi2
 738 00bc 2C4B     		ldr	r3, .L66
 739 00be DA71     		strb	r2, [r3, #7]
 141:can_manga.c   ****             break;
 740              		.loc 1 141 0
 741 00c0 9DF80120 		ldrb	r2, [sp, #1]	@ zero_extendqisi2
 742 00c4 9A71     		strb	r2, [r3, #6]
 142:can_manga.c   ****         case 0x388:    // BMS voltage data 
 743              		.loc 1 142 0
 744 00c6 4EE0     		b	.L50
 745              	.LVL42:
 746              	.L51:
 144:can_manga.c   ****             VOLT_B3 = data[CAN_DATA_BYTE_6];
 747              		.loc 1 144 0
 748 00c8 9DF80720 		ldrb	r2, [sp, #7]	@ zero_extendqisi2
 749 00cc 2B4B     		ldr	r3, .L66+12
 750              	.LVL43:
 751 00ce 1A70     		strb	r2, [r3]
 145:can_manga.c   ****             VOLT_B2 = data[CAN_DATA_BYTE_7];
 752              		.loc 1 145 0
 753 00d0 9DF80620 		ldrb	r2, [sp, #6]	@ zero_extendqisi2
 754 00d4 2A48     		ldr	r0, .L66+16
 755 00d6 0270     		strb	r2, [r0]
 146:can_manga.c   ****             VOLT_B1 = data[CAN_DATA_BYTE_8];
 756              		.loc 1 146 0
 757 00d8 9DF80520 		ldrb	r2, [sp, #5]	@ zero_extendqisi2
 758 00dc 2949     		ldr	r1, .L66+20
 759 00de 0A70     		strb	r2, [r1]
 147:can_manga.c   ****             voltage = (VOLT_B4 << 24) | (VOLT_B3 << 16) | (VOLT_B2 << 8) | VOLT_B1; 
 760              		.loc 1 147 0
 761 00e0 9DF80440 		ldrb	r4, [sp, #4]	@ zero_extendqisi2
 762              	.LVL44:
 763 00e4 284A     		ldr	r2, .L66+24
 764 00e6 1470     		strb	r4, [r2]
 148:can_manga.c   ****             break;
 765              		.loc 1 148 0
 766 00e8 1C78     		ldrb	r4, [r3]	@ zero_extendqisi2
 767 00ea 0378     		ldrb	r3, [r0]	@ zero_extendqisi2
 768 00ec 1B04     		lsls	r3, r3, #16
 769 00ee 43EA0463 		orr	r3, r3, r4, lsl #24
 770 00f2 0978     		ldrb	r1, [r1]	@ zero_extendqisi2
 771 00f4 43EA0123 		orr	r3, r3, r1, lsl #8
 772 00f8 1278     		ldrb	r2, [r2]	@ zero_extendqisi2
 773 00fa 1343     		orrs	r3, r3, r2
 774 00fc 234A     		ldr	r2, .L66+28
ARM GAS  C:\Users\Tehya\AppData\Local\Temp\ccYCCPEz.s 			page 20


 775 00fe 1360     		str	r3, [r2]
 149:can_manga.c   ****         case 0x0488:   // BMS Temp data
 776              		.loc 1 149 0
 777 0100 31E0     		b	.L50
 778              	.LVL45:
 779              	.L61:
 151:can_manga.c   ****             ERROR_NODE = data[CAN_DATA_BYTE_7];
 780              		.loc 1 151 0
 781 0102 9DF80620 		ldrb	r2, [sp, #6]	@ zero_extendqisi2
 782 0106 224B     		ldr	r3, .L66+32
 783 0108 1A60     		str	r2, [r3]
 152:can_manga.c   ****             PACK_TEMP = data[CAN_DATA_BYTE_8];
 784              		.loc 1 152 0
 785 010a 9DF80520 		ldrb	r2, [sp, #5]	@ zero_extendqisi2
 786 010e 214B     		ldr	r3, .L66+36
 787 0110 1A60     		str	r2, [r3]
 153:can_manga.c   ****             tempAttenuate();
 788              		.loc 1 153 0
 789 0112 9DF80420 		ldrb	r2, [sp, #4]	@ zero_extendqisi2
 790 0116 204B     		ldr	r3, .L66+40
 791 0118 1A70     		strb	r2, [r3]
 154:can_manga.c   ****             break;
 792              		.loc 1 154 0
 793 011a FFF7FEFF 		bl	tempAttenuate
 794              	.LVL46:
 155:can_manga.c   ****         case 0x521: // current data from IVT
 795              		.loc 1 155 0
 796 011e 22E0     		b	.L50
 797              	.L62:
 157:can_manga.c   ****             current_bytes[1] = data[CAN_DATA_BYTE_4];
 798              		.loc 1 157 0
 799 0120 9DF80140 		ldrb	r4, [sp, #1]	@ zero_extendqisi2
 800              	.LVL47:
 801 0124 1249     		ldr	r1, .L66
 802 0126 0C72     		strb	r4, [r1, #8]
 158:can_manga.c   ****             current_bytes[2] = data[CAN_DATA_BYTE_5];
 803              		.loc 1 158 0
 804 0128 9DF80030 		ldrb	r3, [sp]	@ zero_extendqisi2
 805 012c 4B72     		strb	r3, [r1, #9]
 159:can_manga.c   ****             current_bytes[3] = data[CAN_DATA_BYTE_6];
 806              		.loc 1 159 0
 807 012e 9DF80700 		ldrb	r0, [sp, #7]	@ zero_extendqisi2
 808 0132 8872     		strb	r0, [r1, #10]
 160:can_manga.c   ****             CURRENT = (current_bytes[0] << 24) + (current_bytes[1] << 16) + (current_bytes[2] << 8)
 809              		.loc 1 160 0
 810 0134 9DF80620 		ldrb	r2, [sp, #6]	@ zero_extendqisi2
 811 0138 CA72     		strb	r2, [r1, #11]
 161:can_manga.c   ****             break;
 812              		.loc 1 161 0
 813 013a 1B04     		lsls	r3, r3, #16
 814 013c 03EB0463 		add	r3, r3, r4, lsl #24
 815 0140 03EB0023 		add	r3, r3, r0, lsl #8
 816 0144 1344     		add	r3, r3, r2
 817 0146 154A     		ldr	r2, .L66+44
 818 0148 1360     		str	r3, [r2]
 162:can_manga.c   ****         case 0x188:
 819              		.loc 1 162 0
ARM GAS  C:\Users\Tehya\AppData\Local\Temp\ccYCCPEz.s 			page 21


 820 014a 0CE0     		b	.L50
 821              	.LVL48:
 822              	.L56:
 164:can_manga.c   ****             break;
 823              		.loc 1 164 0
 824 014c 9DF80120 		ldrb	r2, [sp, #1]	@ zero_extendqisi2
 825 0150 9DF80030 		ldrb	r3, [sp]	@ zero_extendqisi2
 826              	.LVL49:
 827 0154 43EA0223 		orr	r3, r3, r2, lsl #8
 828 0158 114A     		ldr	r2, .L66+48
 829 015a 1380     		strh	r3, [r2]	@ movhi
 165:can_manga.c   ****         case 0x366: //Tehya test
 830              		.loc 1 165 0
 831 015c 03E0     		b	.L50
 832              	.L58:
 167:can_manga.c   ****             break;
 833              		.loc 1 167 0
 834 015e 9DF80320 		ldrb	r2, [sp, #3]	@ zero_extendqisi2
 835 0162 104B     		ldr	r3, .L66+52
 836 0164 1A70     		strb	r2, [r3]
 837              	.LVL50:
 838              	.L50:
 171:can_manga.c   **** }
 839              		.loc 1 171 0
 840 0166 3046     		mov	r0, r6
 841 0168 FFF7FEFF 		bl	CyExitCriticalSection
 842              	.LVL51:
 172:can_manga.c   **** 
 843              		.loc 1 172 0
 844 016c 02B0     		add	sp, sp, #8
 845              		.cfi_def_cfa_offset 16
 846              		@ sp needed
 847 016e 70BD     		pop	{r4, r5, r6, pc}
 848              	.LVL52:
 849              	.L67:
 850              		.align	2
 851              	.L66:
 852 0170 00000000 		.word	.LANCHOR0
 853 0174 00000000 		.word	BSPD_CATCH
 854 0178 00000000 		.word	pedalOK
 855 017c 00000000 		.word	VOLT_B4
 856 0180 00000000 		.word	VOLT_B3
 857 0184 00000000 		.word	VOLT_B2
 858 0188 00000000 		.word	VOLT_B1
 859 018c 00000000 		.word	voltage
 860 0190 00000000 		.word	ERROR_IDX
 861 0194 00000000 		.word	ERROR_NODE
 862 0198 00000000 		.word	PACK_TEMP
 863 019c 00000000 		.word	CURRENT
 864 01a0 00000000 		.word	bms_status
 865 01a4 00000000 		.word	ESTOP
 866              		.cfi_endproc
 867              	.LFE72:
 868              		.size	can_receive, .-can_receive
 869              		.global	current_bytes
 870              		.comm	VOLT_B4,1,1
 871              		.comm	VOLT_B3,1,1
ARM GAS  C:\Users\Tehya\AppData\Local\Temp\ccYCCPEz.s 			page 22


 872              		.comm	VOLT_B2,1,1
 873              		.comm	VOLT_B1,1,1
 874              		.comm	ESTOP,1,1
 875              		.global	THROTTLE_LOW
 876              		.global	THROTTLE_HIGH
 877              		.global	ABS_MOTOR_RPM
 878              		.global	ERROR_TOLERANCE
 879              		.global	ACK_RX
 880              		.global	CURTIS_HEART_BEAT_CHECK
 881              		.global	CURTIS_FAULT_CHECK
 882              		.global	CAPACITOR_VOLT
 883              		.comm	FRAME,30,4
 884              		.bss
 885              		.align	2
 886              		.set	.LANCHOR0,. + 0
 887              		.type	CAPACITOR_VOLT, %object
 888              		.size	CAPACITOR_VOLT, 1
 889              	CAPACITOR_VOLT:
 890 0000 00       		.space	1
 891              		.type	CURTIS_FAULT_CHECK, %object
 892              		.size	CURTIS_FAULT_CHECK, 1
 893              	CURTIS_FAULT_CHECK:
 894 0001 00       		.space	1
 895              		.type	CURTIS_HEART_BEAT_CHECK, %object
 896              		.size	CURTIS_HEART_BEAT_CHECK, 1
 897              	CURTIS_HEART_BEAT_CHECK:
 898 0002 00       		.space	1
 899              		.type	ACK_RX, %object
 900              		.size	ACK_RX, 1
 901              	ACK_RX:
 902 0003 00       		.space	1
 903              		.type	ERROR_TOLERANCE, %object
 904              		.size	ERROR_TOLERANCE, 1
 905              	ERROR_TOLERANCE:
 906 0004 00       		.space	1
 907              		.type	ABS_MOTOR_RPM, %object
 908              		.size	ABS_MOTOR_RPM, 1
 909              	ABS_MOTOR_RPM:
 910 0005 00       		.space	1
 911              		.type	THROTTLE_LOW, %object
 912              		.size	THROTTLE_LOW, 1
 913              	THROTTLE_LOW:
 914 0006 00       		.space	1
 915              		.type	THROTTLE_HIGH, %object
 916              		.size	THROTTLE_HIGH, 1
 917              	THROTTLE_HIGH:
 918 0007 00       		.space	1
 919              		.type	current_bytes, %object
 920              		.size	current_bytes, 4
 921              	current_bytes:
 922 0008 00000000 		.space	4
 923              		.text
 924              	.Letext0:
 925              		.file 2 "c:\\program files (x86)\\cypress\\psoc creator\\4.2\\psoc creator\\import\\gnu\\arm\\5.4.
 926              		.file 3 "c:\\program files (x86)\\cypress\\psoc creator\\4.2\\psoc creator\\import\\gnu\\arm\\5.4.
 927              		.file 4 "Generated_Source\\PSoC5/cytypes.h"
 928              		.file 5 "Generated_Source\\PSoC5/CAN.h"
ARM GAS  C:\Users\Tehya\AppData\Local\Temp\ccYCCPEz.s 			page 23


 929              		.file 6 "data.h"
 930              		.file 7 "glcdfont.h"
 931              		.file 8 "Generated_Source\\PSoC5/core_cm3.h"
 932              		.file 9 "T6963C.h"
 933              		.file 10 "Generated_Source\\PSoC5/CyLib.h"