ARM GAS  C:\Users\ianrd\AppData\Local\Temp\ccJ8b3Fg.s 			page 1


   1              		.syntax unified
   2              		.cpu cortex-m3
   3              		.fpu softvfp
   4              		.eabi_attribute 20, 1
   5              		.eabi_attribute 21, 1
   6              		.eabi_attribute 23, 3
   7              		.eabi_attribute 24, 1
   8              		.eabi_attribute 25, 1
   9              		.eabi_attribute 26, 1
  10              		.eabi_attribute 30, 1
  11              		.eabi_attribute 34, 1
  12              		.eabi_attribute 18, 4
  13              		.thumb
  14              		.syntax unified
  15              		.file	"CAN_TX_RX_func.c"
  16              		.text
  17              	.Ltext0:
  18              		.cfi_sections	.debug_frame
  19              		.section	.text.CAN_SendMsg,"ax",%progbits
  20              		.align	2
  21              		.global	CAN_SendMsg
  22              		.thumb
  23              		.thumb_func
  24              		.type	CAN_SendMsg, %function
  25              	CAN_SendMsg:
  26              	.LFB63:
  27              		.file 1 "Generated_Source\\PSoC5\\CAN_TX_RX_func.c"
   1:Generated_Source\PSoC5/CAN_TX_RX_func.c **** /*******************************************************************************
   2:Generated_Source\PSoC5/CAN_TX_RX_func.c **** * File Name: CAN_TX_RX_func.c
   3:Generated_Source\PSoC5/CAN_TX_RX_func.c **** * Version 3.0
   4:Generated_Source\PSoC5/CAN_TX_RX_func.c **** *
   5:Generated_Source\PSoC5/CAN_TX_RX_func.c **** * Description:
   6:Generated_Source\PSoC5/CAN_TX_RX_func.c **** *  There are functions process "Full" Receive and Transmit mailboxes:
   7:Generated_Source\PSoC5/CAN_TX_RX_func.c **** *     - CAN_SendMsg0-7();
   8:Generated_Source\PSoC5/CAN_TX_RX_func.c **** *     - CAN_ReceiveMsg0-15();
   9:Generated_Source\PSoC5/CAN_TX_RX_func.c **** *  Transmission of message, and receive routine for "Basic" mailboxes:
  10:Generated_Source\PSoC5/CAN_TX_RX_func.c **** *     - CAN_SendMsg();
  11:Generated_Source\PSoC5/CAN_TX_RX_func.c **** *     - CAN_TxCancel();
  12:Generated_Source\PSoC5/CAN_TX_RX_func.c **** *     - CAN_ReceiveMsg();
  13:Generated_Source\PSoC5/CAN_TX_RX_func.c **** *
  14:Generated_Source\PSoC5/CAN_TX_RX_func.c **** *  Note:
  15:Generated_Source\PSoC5/CAN_TX_RX_func.c **** *   None
  16:Generated_Source\PSoC5/CAN_TX_RX_func.c **** *
  17:Generated_Source\PSoC5/CAN_TX_RX_func.c **** ********************************************************************************
  18:Generated_Source\PSoC5/CAN_TX_RX_func.c **** * Copyright 2008-2015, Cypress Semiconductor Corporation.  All rights reserved.
  19:Generated_Source\PSoC5/CAN_TX_RX_func.c **** * You may use this file only in accordance with the license, terms, conditions,
  20:Generated_Source\PSoC5/CAN_TX_RX_func.c **** * disclaimers, and limitations in the end user license agreement accompanying
  21:Generated_Source\PSoC5/CAN_TX_RX_func.c **** * the software package with which this file was provided.
  22:Generated_Source\PSoC5/CAN_TX_RX_func.c **** *******************************************************************************/
  23:Generated_Source\PSoC5/CAN_TX_RX_func.c **** 
  24:Generated_Source\PSoC5/CAN_TX_RX_func.c **** #include "CAN.h"
  25:Generated_Source\PSoC5/CAN_TX_RX_func.c **** #include "cyapicallbacks.h"
  26:Generated_Source\PSoC5/CAN_TX_RX_func.c **** 
  27:Generated_Source\PSoC5/CAN_TX_RX_func.c **** /* `#START TX_RX_FUNCTION` */
  28:Generated_Source\PSoC5/CAN_TX_RX_func.c **** #include "can_manga.h"
  29:Generated_Source\PSoC5/CAN_TX_RX_func.c **** 
  30:Generated_Source\PSoC5/CAN_TX_RX_func.c **** #define buffer_LEN 8
ARM GAS  C:\Users\ianrd\AppData\Local\Temp\ccJ8b3Fg.s 			page 2


  31:Generated_Source\PSoC5/CAN_TX_RX_func.c **** extern uint8_t can_buffer[];
  32:Generated_Source\PSoC5/CAN_TX_RX_func.c **** /* `#END` */
  33:Generated_Source\PSoC5/CAN_TX_RX_func.c **** 
  34:Generated_Source\PSoC5/CAN_TX_RX_func.c **** 
  35:Generated_Source\PSoC5/CAN_TX_RX_func.c **** /*******************************************************************************
  36:Generated_Source\PSoC5/CAN_TX_RX_func.c **** * FUNCTION NAME:   CAN_SendMsg
  37:Generated_Source\PSoC5/CAN_TX_RX_func.c **** ********************************************************************************
  38:Generated_Source\PSoC5/CAN_TX_RX_func.c **** *
  39:Generated_Source\PSoC5/CAN_TX_RX_func.c **** * Summary:
  40:Generated_Source\PSoC5/CAN_TX_RX_func.c **** *  This function is Send Message from one of Basic mailboxes. The function loops
  41:Generated_Source\PSoC5/CAN_TX_RX_func.c **** *  through the transmit message buffer designed as Basic CAN mailboxes for the
  42:Generated_Source\PSoC5/CAN_TX_RX_func.c **** *  first free available and sends from it. The number of retries is limited.
  43:Generated_Source\PSoC5/CAN_TX_RX_func.c **** *
  44:Generated_Source\PSoC5/CAN_TX_RX_func.c **** * Parameters:
  45:Generated_Source\PSoC5/CAN_TX_RX_func.c **** *  message: The pointer to a structure that contains all required data to send
  46:Generated_Source\PSoC5/CAN_TX_RX_func.c **** *           messages.
  47:Generated_Source\PSoC5/CAN_TX_RX_func.c **** *
  48:Generated_Source\PSoC5/CAN_TX_RX_func.c **** * Return:
  49:Generated_Source\PSoC5/CAN_TX_RX_func.c **** *  Indication if message has been sent.
  50:Generated_Source\PSoC5/CAN_TX_RX_func.c **** *   Define                             Description
  51:Generated_Source\PSoC5/CAN_TX_RX_func.c **** *    CYRET_SUCCESS                      The function passed successfully
  52:Generated_Source\PSoC5/CAN_TX_RX_func.c **** *    CAN_FAIL              The function failed
  53:Generated_Source\PSoC5/CAN_TX_RX_func.c **** *
  54:Generated_Source\PSoC5/CAN_TX_RX_func.c **** *******************************************************************************/
  55:Generated_Source\PSoC5/CAN_TX_RX_func.c **** uint8 CAN_SendMsg(const CAN_TX_MSG *message) 
  56:Generated_Source\PSoC5/CAN_TX_RX_func.c **** {
  28              		.loc 1 56 0
  29              		.cfi_startproc
  30              		@ args = 0, pretend = 0, frame = 0
  31              		@ frame_needed = 0, uses_anonymous_args = 0
  32              	.LVL0:
  33 0000 F0B5     		push	{r4, r5, r6, r7, lr}
  34              		.cfi_def_cfa_offset 20
  35              		.cfi_offset 4, -20
  36              		.cfi_offset 5, -16
  37              		.cfi_offset 6, -12
  38              		.cfi_offset 7, -8
  39              		.cfi_offset 14, -4
  40              	.LVL1:
  57:Generated_Source\PSoC5/CAN_TX_RX_func.c ****     uint8 i, j, shift;
  58:Generated_Source\PSoC5/CAN_TX_RX_func.c ****     uint8 retry = 0u;
  59:Generated_Source\PSoC5/CAN_TX_RX_func.c ****     uint8 result = CAN_FAIL;
  41              		.loc 1 59 0
  42 0002 0121     		movs	r1, #1
  58:Generated_Source\PSoC5/CAN_TX_RX_func.c ****     uint8 result = CAN_FAIL;
  43              		.loc 1 58 0
  44 0004 0026     		movs	r6, #0
  60:Generated_Source\PSoC5/CAN_TX_RX_func.c ****     uint32 regTemp;
  61:Generated_Source\PSoC5/CAN_TX_RX_func.c **** 
  62:Generated_Source\PSoC5/CAN_TX_RX_func.c ****     while (retry < CAN_RETRY_NUMBER)
  45              		.loc 1 62 0
  46 0006 5DE0     		b	.L2
  47              	.LVL2:
  48              	.L16:
  63:Generated_Source\PSoC5/CAN_TX_RX_func.c ****     {
  64:Generated_Source\PSoC5/CAN_TX_RX_func.c ****         shift = 1u;    /* Start from first mailbox */
  65:Generated_Source\PSoC5/CAN_TX_RX_func.c ****         for (i = 0u; i < CAN_NUMBER_OF_TX_MAILBOXES; i++)
ARM GAS  C:\Users\ianrd\AppData\Local\Temp\ccJ8b3Fg.s 			page 3


  66:Generated_Source\PSoC5/CAN_TX_RX_func.c ****         {
  67:Generated_Source\PSoC5/CAN_TX_RX_func.c ****             /* Find Basic TX mailboxes */
  68:Generated_Source\PSoC5/CAN_TX_RX_func.c ****             if ((CAN_TX_MAILBOX_TYPE & shift) == 0u)
  49              		.loc 1 68 0
  50 0008 17F0030F 		tst	r7, #3
  51 000c 4DD1     		bne	.L3
  69:Generated_Source\PSoC5/CAN_TX_RX_func.c ****             {
  70:Generated_Source\PSoC5/CAN_TX_RX_func.c ****                 /* Find free mailbox */
  71:Generated_Source\PSoC5/CAN_TX_RX_func.c ****                 #if (CY_PSOC3 || CY_PSOC5)
  72:Generated_Source\PSoC5/CAN_TX_RX_func.c ****                     if ((CAN_BUF_SR_REG.byte[2] & shift) == 0u)
  52              		.loc 1 72 0
  53 000e 2F4B     		ldr	r3, .L22
  54 0010 9B78     		ldrb	r3, [r3, #2]	@ zero_extendqisi2
  55 0012 3B42     		tst	r3, r7
  56 0014 49D1     		bne	.L3
  57              	.LVL3:
  73:Generated_Source\PSoC5/CAN_TX_RX_func.c ****                 #else  /* CY_PSOC4 */
  74:Generated_Source\PSoC5/CAN_TX_RX_func.c ****                     if ((CAN_BUF_SR_REG &
  75:Generated_Source\PSoC5/CAN_TX_RX_func.c ****                         (uint32) ((uint32) shift << CAN_TWO_BYTE_OFFSET)) == 0u)
  76:Generated_Source\PSoC5/CAN_TX_RX_func.c ****                 #endif /* CY_PSOC3 || CY_PSOC5 */
  77:Generated_Source\PSoC5/CAN_TX_RX_func.c ****                     {
  78:Generated_Source\PSoC5/CAN_TX_RX_func.c ****                         regTemp = 0u;
  79:Generated_Source\PSoC5/CAN_TX_RX_func.c **** 
  80:Generated_Source\PSoC5/CAN_TX_RX_func.c ****                         /* Set message parameters */
  81:Generated_Source\PSoC5/CAN_TX_RX_func.c ****                         if (message->rtr != CAN_STANDARD_MESSAGE)
  58              		.loc 1 81 0
  59 0016 0379     		ldrb	r3, [r0, #4]	@ zero_extendqisi2
  60 0018 0BB1     		cbz	r3, .L4
  82:Generated_Source\PSoC5/CAN_TX_RX_func.c ****                         {
  83:Generated_Source\PSoC5/CAN_TX_RX_func.c ****                             regTemp = CAN_TX_RTR_MASK;    /* RTR message Enable */
  61              		.loc 1 83 0
  62 001a 4FF40013 		mov	r3, #2097152
  63              	.L4:
  64              	.LVL4:
  84:Generated_Source\PSoC5/CAN_TX_RX_func.c ****                         }
  85:Generated_Source\PSoC5/CAN_TX_RX_func.c **** 
  86:Generated_Source\PSoC5/CAN_TX_RX_func.c ****                         if (message->ide == CAN_STANDARD_MESSAGE)
  65              		.loc 1 86 0
  66 001e 4179     		ldrb	r1, [r0, #5]	@ zero_extendqisi2
  67              	.LVL5:
  68 0020 31B9     		cbnz	r1, .L5
  87:Generated_Source\PSoC5/CAN_TX_RX_func.c ****                         {
  88:Generated_Source\PSoC5/CAN_TX_RX_func.c ****                             CAN_SET_TX_ID_STANDARD_MSG(i, message->id);
  69              		.loc 1 88 0
  70 0022 2B49     		ldr	r1, .L22+4
  71 0024 01EB0211 		add	r1, r1, r2, lsl #4
  72 0028 0468     		ldr	r4, [r0]
  73 002a 6405     		lsls	r4, r4, #21
  74 002c 4C60     		str	r4, [r1, #4]
  75 002e 07E0     		b	.L6
  76              	.L5:
  89:Generated_Source\PSoC5/CAN_TX_RX_func.c ****                         }
  90:Generated_Source\PSoC5/CAN_TX_RX_func.c ****                         else
  91:Generated_Source\PSoC5/CAN_TX_RX_func.c ****                         {
  92:Generated_Source\PSoC5/CAN_TX_RX_func.c ****                             regTemp |= CAN_TX_IDE_MASK;
  77              		.loc 1 92 0
  78 0030 43F48013 		orr	r3, r3, #1048576
ARM GAS  C:\Users\ianrd\AppData\Local\Temp\ccJ8b3Fg.s 			page 4


  79              	.LVL6:
  93:Generated_Source\PSoC5/CAN_TX_RX_func.c ****                             CAN_SET_TX_ID_EXTENDED_MSG(i, message->id);
  80              		.loc 1 93 0
  81 0034 2649     		ldr	r1, .L22+4
  82 0036 01EB0211 		add	r1, r1, r2, lsl #4
  83 003a 0468     		ldr	r4, [r0]
  84 003c E400     		lsls	r4, r4, #3
  85 003e 4C60     		str	r4, [r1, #4]
  86              	.L6:
  94:Generated_Source\PSoC5/CAN_TX_RX_func.c ****                         }
  95:Generated_Source\PSoC5/CAN_TX_RX_func.c **** 
  96:Generated_Source\PSoC5/CAN_TX_RX_func.c ****                         if (message->dlc < CAN_TX_DLC_MAX_VALUE)
  87              		.loc 1 96 0
  88 0040 90F806E0 		ldrb	lr, [r0, #6]	@ zero_extendqisi2
  89 0044 BEF1070F 		cmp	lr, #7
  90 0048 02D8     		bhi	.L7
  97:Generated_Source\PSoC5/CAN_TX_RX_func.c ****                         {
  98:Generated_Source\PSoC5/CAN_TX_RX_func.c ****                             regTemp |= ((uint32) message->dlc) << CAN_TWO_BYTE_OFFSET;
  91              		.loc 1 98 0
  92 004a 43EA0E4E 		orr	lr, r3, lr, lsl #16
  93              	.LVL7:
  94 004e 01E0     		b	.L8
  95              	.LVL8:
  96              	.L7:
  99:Generated_Source\PSoC5/CAN_TX_RX_func.c ****                         }
 100:Generated_Source\PSoC5/CAN_TX_RX_func.c ****                         else
 101:Generated_Source\PSoC5/CAN_TX_RX_func.c ****                         {
 102:Generated_Source\PSoC5/CAN_TX_RX_func.c ****                             regTemp |= CAN_TX_DLC_UPPER_VALUE;
  97              		.loc 1 102 0
  98 0050 43F4002E 		orr	lr, r3, #524288
  99              	.LVL9:
 100              	.L8:
 103:Generated_Source\PSoC5/CAN_TX_RX_func.c ****                         }
 104:Generated_Source\PSoC5/CAN_TX_RX_func.c **** 
 105:Generated_Source\PSoC5/CAN_TX_RX_func.c ****                         if (message->irq != CAN_TRANSMIT_INT_DISABLE)
 101              		.loc 1 105 0
 102 0054 C379     		ldrb	r3, [r0, #7]	@ zero_extendqisi2
 103 0056 0BB1     		cbz	r3, .L9
 106:Generated_Source\PSoC5/CAN_TX_RX_func.c ****                         {
 107:Generated_Source\PSoC5/CAN_TX_RX_func.c ****                             regTemp |= CAN_TX_INT_ENABLE_MASK;    /* Transmit Interrupt Enable */
 104              		.loc 1 107 0
 105 0058 4EF0040E 		orr	lr, lr, #4
 106              	.LVL10:
 107              	.L9:
 108:Generated_Source\PSoC5/CAN_TX_RX_func.c ****                         }
 109:Generated_Source\PSoC5/CAN_TX_RX_func.c **** 
 110:Generated_Source\PSoC5/CAN_TX_RX_func.c ****                         for (j = 0u; (j < message->dlc) && (j < CAN_TX_DLC_MAX_VALUE); j++)
 108              		.loc 1 110 0
 109 005c 0023     		movs	r3, #0
 110 005e 0FE0     		b	.L10
 111              	.LVL11:
 112              	.L14:
 111:Generated_Source\PSoC5/CAN_TX_RX_func.c ****                         {
 112:Generated_Source\PSoC5/CAN_TX_RX_func.c ****                             #if (CY_PSOC3 || CY_PSOC5)
 113:Generated_Source\PSoC5/CAN_TX_RX_func.c ****                                 CAN_TX_DATA_BYTE(i, j) = message->msg->byte[j];
 113              		.loc 1 113 0
 114 0060 1B49     		ldr	r1, .L22+4
ARM GAS  C:\Users\ianrd\AppData\Local\Temp\ccJ8b3Fg.s 			page 5


 115 0062 01EB0214 		add	r4, r1, r2, lsl #4
 116 0066 032B     		cmp	r3, #3
 117 0068 02D9     		bls	.L11
 118              		.loc 1 113 0 is_stmt 0 discriminator 1
 119 006a C3F10B01 		rsb	r1, r3, #11
 120 006e 01E0     		b	.L12
 121              	.L11:
 122              		.loc 1 113 0 discriminator 2
 123 0070 C3F10301 		rsb	r1, r3, #3
 124              	.L12:
 125              		.loc 1 113 0 discriminator 4
 126 0074 8568     		ldr	r5, [r0, #8]
 127 0076 ED5C     		ldrb	r5, [r5, r3]	@ zero_extendqisi2
 128 0078 2144     		add	r1, r1, r4
 129 007a 0D72     		strb	r5, [r1, #8]
 110:Generated_Source\PSoC5/CAN_TX_RX_func.c ****                         {
 130              		.loc 1 110 0 is_stmt 1 discriminator 4
 131 007c 0133     		adds	r3, r3, #1
 132              	.LVL12:
 133 007e DBB2     		uxtb	r3, r3
 134              	.LVL13:
 135              	.L10:
 110:Generated_Source\PSoC5/CAN_TX_RX_func.c ****                         {
 136              		.loc 1 110 0 is_stmt 0 discriminator 2
 137 0080 8179     		ldrb	r1, [r0, #6]	@ zero_extendqisi2
 138 0082 8B42     		cmp	r3, r1
 139 0084 01D2     		bcs	.L13
 110:Generated_Source\PSoC5/CAN_TX_RX_func.c ****                         {
 140              		.loc 1 110 0 discriminator 3
 141 0086 072B     		cmp	r3, #7
 142 0088 EAD9     		bls	.L14
 143              	.L13:
 114:Generated_Source\PSoC5/CAN_TX_RX_func.c ****                             #else /* CY_PSOC4 */
 115:Generated_Source\PSoC5/CAN_TX_RX_func.c ****                                 CAN_TX_DATA_BYTE(i, j, message->msg->byte[j]);
 116:Generated_Source\PSoC5/CAN_TX_RX_func.c ****                             #endif /* CY_PSOC3 || CY_PSOC5 */
 117:Generated_Source\PSoC5/CAN_TX_RX_func.c ****                         }
 118:Generated_Source\PSoC5/CAN_TX_RX_func.c **** 
 119:Generated_Source\PSoC5/CAN_TX_RX_func.c ****                         /* Disable isr */
 120:Generated_Source\PSoC5/CAN_TX_RX_func.c ****     CyIntDisable(CAN_ISR_NUMBER);
 144              		.loc 1 120 0 is_stmt 1
 145 008a 4FF48034 		mov	r4, #65536
 146 008e 114B     		ldr	r3, .L22+8
 147              	.LVL14:
 148 0090 1C60     		str	r4, [r3]
 121:Generated_Source\PSoC5/CAN_TX_RX_func.c **** 
 122:Generated_Source\PSoC5/CAN_TX_RX_func.c ****                         /* WPN[23] and WPN[3] set to 1 for write to CAN Control reg */
 123:Generated_Source\PSoC5/CAN_TX_RX_func.c ****                         CY_SET_REG32(CAN_TX_CMD_PTR(i), (regTemp | CAN_TX_WPN_SET));
 149              		.loc 1 123 0
 150 0092 1101     		lsls	r1, r2, #4
 151 0094 0E4D     		ldr	r5, .L22+4
 152 0096 4EF40003 		orr	r3, lr, #8388608
 153 009a 43F00803 		orr	r3, r3, #8
 154 009e 4B51     		str	r3, [r1, r5]
 124:Generated_Source\PSoC5/CAN_TX_RX_func.c **** 
 125:Generated_Source\PSoC5/CAN_TX_RX_func.c ****                         #if (CY_PSOC3 || CY_PSOC5)
 126:Generated_Source\PSoC5/CAN_TX_RX_func.c ****                             CY_SET_REG32(CAN_TX_CMD_PTR(i), CAN_SEND_MESSAGE);
 155              		.loc 1 126 0
ARM GAS  C:\Users\ianrd\AppData\Local\Temp\ccJ8b3Fg.s 			page 6


 156 00a0 0123     		movs	r3, #1
 157 00a2 4B51     		str	r3, [r1, r5]
 127:Generated_Source\PSoC5/CAN_TX_RX_func.c ****                         #else /* CY_PSOC4 */
 128:Generated_Source\PSoC5/CAN_TX_RX_func.c ****                             if (message->sst != CAN_STANDARD_MESSAGE)
 129:Generated_Source\PSoC5/CAN_TX_RX_func.c ****                             {
 130:Generated_Source\PSoC5/CAN_TX_RX_func.c ****                                 /* Single Shot Transmission */
 131:Generated_Source\PSoC5/CAN_TX_RX_func.c ****                                 CAN_TX_CMD_REG(i) |= CAN_SEND_MESSAGE |
 132:Generated_Source\PSoC5/CAN_TX_RX_func.c ****                                 CAN_TX_ABORT_MASK;
 133:Generated_Source\PSoC5/CAN_TX_RX_func.c ****                             }
 134:Generated_Source\PSoC5/CAN_TX_RX_func.c ****                             else
 135:Generated_Source\PSoC5/CAN_TX_RX_func.c ****                             {
 136:Generated_Source\PSoC5/CAN_TX_RX_func.c ****                                 CAN_TX_CMD_REG(i) |= CAN_SEND_MESSAGE;
 137:Generated_Source\PSoC5/CAN_TX_RX_func.c ****                             }
 138:Generated_Source\PSoC5/CAN_TX_RX_func.c ****                         #endif /* CY_PSOC3 || CY_PSOC5 */
 139:Generated_Source\PSoC5/CAN_TX_RX_func.c **** 
 140:Generated_Source\PSoC5/CAN_TX_RX_func.c ****                         /* Enable isr */
 141:Generated_Source\PSoC5/CAN_TX_RX_func.c ****     CyIntEnable(CAN_ISR_NUMBER);
 158              		.loc 1 141 0
 159 00a4 0C4B     		ldr	r3, .L22+12
 160 00a6 1C60     		str	r4, [r3]
 161              	.LVL15:
 142:Generated_Source\PSoC5/CAN_TX_RX_func.c **** 
 143:Generated_Source\PSoC5/CAN_TX_RX_func.c ****                         result = CYRET_SUCCESS;
 162              		.loc 1 143 0
 163 00a8 0021     		movs	r1, #0
 164              	.LVL16:
 165              	.L3:
 144:Generated_Source\PSoC5/CAN_TX_RX_func.c ****                     }
 145:Generated_Source\PSoC5/CAN_TX_RX_func.c ****             }
 146:Generated_Source\PSoC5/CAN_TX_RX_func.c ****             shift <<= 1u;
 166              		.loc 1 146 0
 167 00aa 7B00     		lsls	r3, r7, #1
 168 00ac DFB2     		uxtb	r7, r3
 169              	.LVL17:
 147:Generated_Source\PSoC5/CAN_TX_RX_func.c ****             if (result == CYRET_SUCCESS)
 170              		.loc 1 147 0
 171 00ae 31B1     		cbz	r1, .L15
  65:Generated_Source\PSoC5/CAN_TX_RX_func.c ****         {
 172              		.loc 1 65 0 discriminator 2
 173 00b0 0132     		adds	r2, r2, #1
 174              	.LVL18:
 175 00b2 D2B2     		uxtb	r2, r2
 176              	.LVL19:
 177 00b4 01E0     		b	.L18
 178              	.LVL20:
 179              	.L20:
 180 00b6 0127     		movs	r7, #1
 181 00b8 0022     		movs	r2, #0
 182              	.L18:
 183              	.LVL21:
  65:Generated_Source\PSoC5/CAN_TX_RX_func.c ****         {
 184              		.loc 1 65 0 is_stmt 0 discriminator 1
 185 00ba 072A     		cmp	r2, #7
 186 00bc A4D9     		bls	.L16
 187              	.L15:
 148:Generated_Source\PSoC5/CAN_TX_RX_func.c ****             {
 149:Generated_Source\PSoC5/CAN_TX_RX_func.c ****                 break;
ARM GAS  C:\Users\ianrd\AppData\Local\Temp\ccJ8b3Fg.s 			page 7


 150:Generated_Source\PSoC5/CAN_TX_RX_func.c ****             }
 151:Generated_Source\PSoC5/CAN_TX_RX_func.c ****         }
 152:Generated_Source\PSoC5/CAN_TX_RX_func.c ****         if (result == CYRET_SUCCESS)
 188              		.loc 1 152 0 is_stmt 1
 189 00be 19B1     		cbz	r1, .L17
 153:Generated_Source\PSoC5/CAN_TX_RX_func.c ****         {
 154:Generated_Source\PSoC5/CAN_TX_RX_func.c ****             break;
 155:Generated_Source\PSoC5/CAN_TX_RX_func.c ****         }
 156:Generated_Source\PSoC5/CAN_TX_RX_func.c ****         else
 157:Generated_Source\PSoC5/CAN_TX_RX_func.c ****         {
 158:Generated_Source\PSoC5/CAN_TX_RX_func.c ****             retry++;
 190              		.loc 1 158 0
 191 00c0 0136     		adds	r6, r6, #1
 192              	.LVL22:
 193 00c2 F6B2     		uxtb	r6, r6
 194              	.LVL23:
 195              	.L2:
  62:Generated_Source\PSoC5/CAN_TX_RX_func.c ****     {
 196              		.loc 1 62 0
 197 00c4 022E     		cmp	r6, #2
 198 00c6 F6D9     		bls	.L20
 199              	.L17:
 159:Generated_Source\PSoC5/CAN_TX_RX_func.c ****         }
 160:Generated_Source\PSoC5/CAN_TX_RX_func.c ****     }
 161:Generated_Source\PSoC5/CAN_TX_RX_func.c **** 
 162:Generated_Source\PSoC5/CAN_TX_RX_func.c ****     return (result);
 163:Generated_Source\PSoC5/CAN_TX_RX_func.c **** }
 200              		.loc 1 163 0
 201 00c8 0846     		mov	r0, r1
 202              	.LVL24:
 203 00ca F0BD     		pop	{r4, r5, r6, r7, pc}
 204              	.LVL25:
 205              	.L23:
 206              		.align	2
 207              	.L22:
 208 00cc 08A00040 		.word	1073782792
 209 00d0 20A00040 		.word	1073782816
 210 00d4 80E100E0 		.word	-536813184
 211 00d8 00E100E0 		.word	-536813312
 212              		.cfi_endproc
 213              	.LFE63:
 214              		.size	CAN_SendMsg, .-CAN_SendMsg
 215              		.section	.text.CAN_TxCancel,"ax",%progbits
 216              		.align	2
 217              		.global	CAN_TxCancel
 218              		.thumb
 219              		.thumb_func
 220              		.type	CAN_TxCancel, %function
 221              	CAN_TxCancel:
 222              	.LFB64:
 164:Generated_Source\PSoC5/CAN_TX_RX_func.c **** 
 165:Generated_Source\PSoC5/CAN_TX_RX_func.c **** 
 166:Generated_Source\PSoC5/CAN_TX_RX_func.c **** /*******************************************************************************
 167:Generated_Source\PSoC5/CAN_TX_RX_func.c **** * FUNCTION NAME:   CAN_TxCancel
 168:Generated_Source\PSoC5/CAN_TX_RX_func.c **** ********************************************************************************
 169:Generated_Source\PSoC5/CAN_TX_RX_func.c **** *
 170:Generated_Source\PSoC5/CAN_TX_RX_func.c **** * Summary:
ARM GAS  C:\Users\ianrd\AppData\Local\Temp\ccJ8b3Fg.s 			page 8


 171:Generated_Source\PSoC5/CAN_TX_RX_func.c **** *  This function cancels transmission of a message that has been queued to be
 172:Generated_Source\PSoC5/CAN_TX_RX_func.c **** *  transmitted. Values between 0 and 7 are valid.
 173:Generated_Source\PSoC5/CAN_TX_RX_func.c **** *
 174:Generated_Source\PSoC5/CAN_TX_RX_func.c **** * Parameters:
 175:Generated_Source\PSoC5/CAN_TX_RX_func.c **** *  bufferId: The mailbox number.
 176:Generated_Source\PSoC5/CAN_TX_RX_func.c **** *
 177:Generated_Source\PSoC5/CAN_TX_RX_func.c **** * Return:
 178:Generated_Source\PSoC5/CAN_TX_RX_func.c **** *  None.
 179:Generated_Source\PSoC5/CAN_TX_RX_func.c **** *
 180:Generated_Source\PSoC5/CAN_TX_RX_func.c **** *******************************************************************************/
 181:Generated_Source\PSoC5/CAN_TX_RX_func.c **** void CAN_TxCancel(uint8 bufferId) 
 182:Generated_Source\PSoC5/CAN_TX_RX_func.c **** {
 223              		.loc 1 182 0
 224              		.cfi_startproc
 225              		@ args = 0, pretend = 0, frame = 0
 226              		@ frame_needed = 0, uses_anonymous_args = 0
 227              		@ link register save eliminated.
 228              	.LVL26:
 183:Generated_Source\PSoC5/CAN_TX_RX_func.c ****     if (bufferId < CAN_NUMBER_OF_TX_MAILBOXES)
 229              		.loc 1 183 0
 230 0000 0728     		cmp	r0, #7
 231 0002 07D8     		bhi	.L24
 184:Generated_Source\PSoC5/CAN_TX_RX_func.c ****     {
 185:Generated_Source\PSoC5/CAN_TX_RX_func.c ****         CAN_TX_ABORT_MESSAGE(bufferId);
 232              		.loc 1 185 0
 233 0004 0001     		lsls	r0, r0, #4
 234              	.LVL27:
 235 0006 044A     		ldr	r2, .L26
 236 0008 835C     		ldrb	r3, [r0, r2]	@ zero_extendqisi2
 237 000a 03F0FC03 		and	r3, r3, #252
 238 000e 43F00203 		orr	r3, r3, #2
 239 0012 8354     		strb	r3, [r0, r2]
 240              	.L24:
 241 0014 7047     		bx	lr
 242              	.L27:
 243 0016 00BF     		.align	2
 244              	.L26:
 245 0018 20A00040 		.word	1073782816
 246              		.cfi_endproc
 247              	.LFE64:
 248              		.size	CAN_TxCancel, .-CAN_TxCancel
 249              		.section	.text.CAN_SendMsgDash_status,"ax",%progbits
 250              		.align	2
 251              		.global	CAN_SendMsgDash_status
 252              		.thumb
 253              		.thumb_func
 254              		.type	CAN_SendMsgDash_status, %function
 255              	CAN_SendMsgDash_status:
 256              	.LFB65:
 186:Generated_Source\PSoC5/CAN_TX_RX_func.c ****     }
 187:Generated_Source\PSoC5/CAN_TX_RX_func.c **** }
 188:Generated_Source\PSoC5/CAN_TX_RX_func.c **** 
 189:Generated_Source\PSoC5/CAN_TX_RX_func.c **** 
 190:Generated_Source\PSoC5/CAN_TX_RX_func.c **** #if (CAN_TX0_FUNC_ENABLE)
 191:Generated_Source\PSoC5/CAN_TX_RX_func.c ****     /*******************************************************************************
 192:Generated_Source\PSoC5/CAN_TX_RX_func.c ****     * FUNCTION NAME:   CAN_SendMsgDash_status
 193:Generated_Source\PSoC5/CAN_TX_RX_func.c ****     ********************************************************************************
ARM GAS  C:\Users\ianrd\AppData\Local\Temp\ccJ8b3Fg.s 			page 9


 194:Generated_Source\PSoC5/CAN_TX_RX_func.c ****     *
 195:Generated_Source\PSoC5/CAN_TX_RX_func.c ****     * Summary:
 196:Generated_Source\PSoC5/CAN_TX_RX_func.c ****     *  This function is the entry point to Transmit Message 0. The function checks
 197:Generated_Source\PSoC5/CAN_TX_RX_func.c ****     *  if mailbox 0 doesn't already have un-transmitted messages waiting for
 198:Generated_Source\PSoC5/CAN_TX_RX_func.c ****     *  arbitration. If not initiate transmission of the message.
 199:Generated_Source\PSoC5/CAN_TX_RX_func.c ****     *  Generated only for the Transmit mailbox designed as Full.
 200:Generated_Source\PSoC5/CAN_TX_RX_func.c ****     *
 201:Generated_Source\PSoC5/CAN_TX_RX_func.c ****     * Parameters:
 202:Generated_Source\PSoC5/CAN_TX_RX_func.c ****     *  None.
 203:Generated_Source\PSoC5/CAN_TX_RX_func.c ****     *
 204:Generated_Source\PSoC5/CAN_TX_RX_func.c ****     * Return:
 205:Generated_Source\PSoC5/CAN_TX_RX_func.c ****     *  Indication if Message has been sent.
 206:Generated_Source\PSoC5/CAN_TX_RX_func.c ****     *   Define                             Description
 207:Generated_Source\PSoC5/CAN_TX_RX_func.c ****     *    CYRET_SUCCESS                      The function passed successfully
 208:Generated_Source\PSoC5/CAN_TX_RX_func.c ****     *    CAN_FAIL              The function failed
 209:Generated_Source\PSoC5/CAN_TX_RX_func.c ****     *
 210:Generated_Source\PSoC5/CAN_TX_RX_func.c ****     *******************************************************************************/
 211:Generated_Source\PSoC5/CAN_TX_RX_func.c ****     uint8 CAN_SendMsgDash_status(void) 
 212:Generated_Source\PSoC5/CAN_TX_RX_func.c ****     {
 257              		.loc 1 212 0
 258              		.cfi_startproc
 259              		@ args = 0, pretend = 0, frame = 0
 260              		@ frame_needed = 0, uses_anonymous_args = 0
 261              		@ link register save eliminated.
 262              	.LVL28:
 213:Generated_Source\PSoC5/CAN_TX_RX_func.c ****         uint8 result = CYRET_SUCCESS;
 214:Generated_Source\PSoC5/CAN_TX_RX_func.c **** 
 215:Generated_Source\PSoC5/CAN_TX_RX_func.c ****         #if (CY_PSOC3 || CY_PSOC5)
 216:Generated_Source\PSoC5/CAN_TX_RX_func.c ****             if ((CAN_TX[0u].txcmd.byte[0u] & CAN_TX_REQUEST_PENDING) != 0u)
 263              		.loc 1 216 0
 264 0000 0F4B     		ldr	r3, .L35
 265 0002 1B78     		ldrb	r3, [r3]	@ zero_extendqisi2
 266 0004 13F0010F 		tst	r3, #1
 267 0008 17D1     		bne	.L34
 268 000a 0023     		movs	r3, #0
 269 000c 0CE0     		b	.L30
 270              	.LVL29:
 271              	.L33:
 272              	.LBB2:
 217:Generated_Source\PSoC5/CAN_TX_RX_func.c ****         #else  /* CY_PSOC4 */
 218:Generated_Source\PSoC5/CAN_TX_RX_func.c ****             if ((CAN_TX_CMD_REG(0u) & CAN_TX_REQUEST_PENDING) != 0u)
 219:Generated_Source\PSoC5/CAN_TX_RX_func.c ****         #endif /* CY_PSOC3 || CY_PSOC5 */
 220:Generated_Source\PSoC5/CAN_TX_RX_func.c ****             {
 221:Generated_Source\PSoC5/CAN_TX_RX_func.c ****                 result = CAN_FAIL;
 222:Generated_Source\PSoC5/CAN_TX_RX_func.c ****             }
 223:Generated_Source\PSoC5/CAN_TX_RX_func.c ****             else
 224:Generated_Source\PSoC5/CAN_TX_RX_func.c ****             {
 225:Generated_Source\PSoC5/CAN_TX_RX_func.c ****                 /* `#START MESSAGE_Dash_status_TRASMITTED` */
 226:Generated_Source\PSoC5/CAN_TX_RX_func.c ****                 uint8_t i;
 227:Generated_Source\PSoC5/CAN_TX_RX_func.c **** 
 228:Generated_Source\PSoC5/CAN_TX_RX_func.c **** 				for(i=0; i<buffer_LEN; i++)
 229:Generated_Source\PSoC5/CAN_TX_RX_func.c **** 					CAN_TX_DATA_BYTE(0,i) = can_buffer[i];
 273              		.loc 1 229 0
 274 000e 032B     		cmp	r3, #3
 275 0010 02D9     		bls	.L31
 276              		.loc 1 229 0 is_stmt 0 discriminator 1
 277 0012 C3F10B00 		rsb	r0, r3, #11
ARM GAS  C:\Users\ianrd\AppData\Local\Temp\ccJ8b3Fg.s 			page 10


 278 0016 01E0     		b	.L32
 279              	.L31:
 280              		.loc 1 229 0 discriminator 2
 281 0018 C3F10300 		rsb	r0, r3, #3
 282              	.L32:
 283              		.loc 1 229 0 discriminator 4
 284 001c 094A     		ldr	r2, .L35+4
 285 001e D15C     		ldrb	r1, [r2, r3]	@ zero_extendqisi2
 286 0020 094A     		ldr	r2, .L35+8
 287 0022 1154     		strb	r1, [r2, r0]
 228:Generated_Source\PSoC5/CAN_TX_RX_func.c **** 					CAN_TX_DATA_BYTE(0,i) = can_buffer[i];
 288              		.loc 1 228 0 is_stmt 1 discriminator 4
 289 0024 0133     		adds	r3, r3, #1
 290              	.LVL30:
 291 0026 DBB2     		uxtb	r3, r3
 292              	.LVL31:
 293              	.L30:
 228:Generated_Source\PSoC5/CAN_TX_RX_func.c **** 					CAN_TX_DATA_BYTE(0,i) = can_buffer[i];
 294              		.loc 1 228 0 is_stmt 0 discriminator 2
 295 0028 072B     		cmp	r3, #7
 296 002a F0D9     		bls	.L33
 230:Generated_Source\PSoC5/CAN_TX_RX_func.c ****                 /* `#END` */
 231:Generated_Source\PSoC5/CAN_TX_RX_func.c **** 
 232:Generated_Source\PSoC5/CAN_TX_RX_func.c ****                 #ifdef CAN_SEND_MSG_Dash_status_CALLBACK
 233:Generated_Source\PSoC5/CAN_TX_RX_func.c ****                     CAN_SendMsg_Dash_status_Callback();
 234:Generated_Source\PSoC5/CAN_TX_RX_func.c ****                 #endif /* CAN_SEND_MSG_Dash_status_CALLBACK */
 235:Generated_Source\PSoC5/CAN_TX_RX_func.c **** 
 236:Generated_Source\PSoC5/CAN_TX_RX_func.c ****                 CY_SET_REG32(CAN_TX_CMD_PTR(0u),
 297              		.loc 1 236 0 is_stmt 1
 298 002c 044A     		ldr	r2, .L35
 299 002e 1368     		ldr	r3, [r2]
 300              	.LVL32:
 301 0030 43F00103 		orr	r3, r3, #1
 302 0034 1360     		str	r3, [r2]
 303              	.LBE2:
 213:Generated_Source\PSoC5/CAN_TX_RX_func.c **** 
 304              		.loc 1 213 0
 305 0036 0020     		movs	r0, #0
 306 0038 7047     		bx	lr
 307              	.L34:
 221:Generated_Source\PSoC5/CAN_TX_RX_func.c ****             }
 308              		.loc 1 221 0
 309 003a 0120     		movs	r0, #1
 310              	.LVL33:
 237:Generated_Source\PSoC5/CAN_TX_RX_func.c ****                 CY_GET_REG32(CAN_TX_CMD_PTR(0u)) | CAN_SEND_MESSAGE);
 238:Generated_Source\PSoC5/CAN_TX_RX_func.c ****             }
 239:Generated_Source\PSoC5/CAN_TX_RX_func.c **** 
 240:Generated_Source\PSoC5/CAN_TX_RX_func.c ****         return (result);
 241:Generated_Source\PSoC5/CAN_TX_RX_func.c ****     }
 311              		.loc 1 241 0
 312 003c 7047     		bx	lr
 313              	.L36:
 314 003e 00BF     		.align	2
 315              	.L35:
 316 0040 20A00040 		.word	1073782816
 317 0044 00000000 		.word	can_buffer
 318 0048 28A00040 		.word	1073782824
ARM GAS  C:\Users\ianrd\AppData\Local\Temp\ccJ8b3Fg.s 			page 11


 319              		.cfi_endproc
 320              	.LFE65:
 321              		.size	CAN_SendMsgDash_status, .-CAN_SendMsgDash_status
 322              		.section	.text.CAN_SendMsgDash_cmd,"ax",%progbits
 323              		.align	2
 324              		.global	CAN_SendMsgDash_cmd
 325              		.thumb
 326              		.thumb_func
 327              		.type	CAN_SendMsgDash_cmd, %function
 328              	CAN_SendMsgDash_cmd:
 329              	.LFB66:
 242:Generated_Source\PSoC5/CAN_TX_RX_func.c **** #endif /* CAN_TX0_FUNC_ENABLE */
 243:Generated_Source\PSoC5/CAN_TX_RX_func.c **** 
 244:Generated_Source\PSoC5/CAN_TX_RX_func.c **** 
 245:Generated_Source\PSoC5/CAN_TX_RX_func.c **** #if (CAN_TX1_FUNC_ENABLE)
 246:Generated_Source\PSoC5/CAN_TX_RX_func.c ****     /*******************************************************************************
 247:Generated_Source\PSoC5/CAN_TX_RX_func.c ****     * FUNCTION NAME:   CAN_SendMsgDash_cmd
 248:Generated_Source\PSoC5/CAN_TX_RX_func.c ****     ********************************************************************************
 249:Generated_Source\PSoC5/CAN_TX_RX_func.c ****     *
 250:Generated_Source\PSoC5/CAN_TX_RX_func.c ****     * Summary:
 251:Generated_Source\PSoC5/CAN_TX_RX_func.c ****     *  This function is the entry point to Transmit Message 1. The function checks
 252:Generated_Source\PSoC5/CAN_TX_RX_func.c ****     *  if mailbox 1 doesn't already have un-transmitted messages waiting for
 253:Generated_Source\PSoC5/CAN_TX_RX_func.c ****     *  arbitration. If not initiate transmission of the message.
 254:Generated_Source\PSoC5/CAN_TX_RX_func.c ****     *  Generated only for the Transmit mailbox designed as Full.
 255:Generated_Source\PSoC5/CAN_TX_RX_func.c ****     *
 256:Generated_Source\PSoC5/CAN_TX_RX_func.c ****     * Parameters:
 257:Generated_Source\PSoC5/CAN_TX_RX_func.c ****     *  None.
 258:Generated_Source\PSoC5/CAN_TX_RX_func.c ****     *
 259:Generated_Source\PSoC5/CAN_TX_RX_func.c ****     * Return:
 260:Generated_Source\PSoC5/CAN_TX_RX_func.c ****     *  Indication if Message has been sent.
 261:Generated_Source\PSoC5/CAN_TX_RX_func.c ****     *   Define                             Description
 262:Generated_Source\PSoC5/CAN_TX_RX_func.c ****     *    CYRET_SUCCESS                      The function passed successfully
 263:Generated_Source\PSoC5/CAN_TX_RX_func.c ****     *    CAN_FAIL              The function failed
 264:Generated_Source\PSoC5/CAN_TX_RX_func.c ****     *
 265:Generated_Source\PSoC5/CAN_TX_RX_func.c ****     *******************************************************************************/
 266:Generated_Source\PSoC5/CAN_TX_RX_func.c ****     uint8 CAN_SendMsgDash_cmd(void) 
 267:Generated_Source\PSoC5/CAN_TX_RX_func.c ****     {
 330              		.loc 1 267 0
 331              		.cfi_startproc
 332              		@ args = 0, pretend = 0, frame = 0
 333              		@ frame_needed = 0, uses_anonymous_args = 0
 334              		@ link register save eliminated.
 335              	.LVL34:
 268:Generated_Source\PSoC5/CAN_TX_RX_func.c ****         uint8 result = CYRET_SUCCESS;
 269:Generated_Source\PSoC5/CAN_TX_RX_func.c **** 
 270:Generated_Source\PSoC5/CAN_TX_RX_func.c ****         #if (CY_PSOC3 || CY_PSOC5)
 271:Generated_Source\PSoC5/CAN_TX_RX_func.c ****             if ((CAN_TX[1u].txcmd.byte[0u] & CAN_TX_REQUEST_PENDING) != 0u)
 336              		.loc 1 271 0
 337 0000 0F4B     		ldr	r3, .L44
 338 0002 1B78     		ldrb	r3, [r3]	@ zero_extendqisi2
 339 0004 13F0010F 		tst	r3, #1
 340 0008 17D1     		bne	.L43
 341 000a 0023     		movs	r3, #0
 342 000c 0CE0     		b	.L39
 343              	.LVL35:
 344              	.L42:
 345              	.LBB3:
ARM GAS  C:\Users\ianrd\AppData\Local\Temp\ccJ8b3Fg.s 			page 12


 272:Generated_Source\PSoC5/CAN_TX_RX_func.c ****         #else  /* CY_PSOC4 */
 273:Generated_Source\PSoC5/CAN_TX_RX_func.c ****             if ((CAN_TX_CMD_REG(1u) & CAN_TX_REQUEST_PENDING) != 0u)
 274:Generated_Source\PSoC5/CAN_TX_RX_func.c ****         #endif /* CY_PSOC3 || CY_PSOC5 */
 275:Generated_Source\PSoC5/CAN_TX_RX_func.c ****             {
 276:Generated_Source\PSoC5/CAN_TX_RX_func.c ****                 result = CAN_FAIL;
 277:Generated_Source\PSoC5/CAN_TX_RX_func.c ****             }
 278:Generated_Source\PSoC5/CAN_TX_RX_func.c ****             else
 279:Generated_Source\PSoC5/CAN_TX_RX_func.c ****             {
 280:Generated_Source\PSoC5/CAN_TX_RX_func.c ****                 /* `#START MESSAGE_Dash_cmd_TRASMITTED` */
 281:Generated_Source\PSoC5/CAN_TX_RX_func.c ****                 uint8_t i;
 282:Generated_Source\PSoC5/CAN_TX_RX_func.c **** 
 283:Generated_Source\PSoC5/CAN_TX_RX_func.c **** 				for(i=0; i<buffer_LEN; i++)
 284:Generated_Source\PSoC5/CAN_TX_RX_func.c **** 					CAN_TX_DATA_BYTE(1,i) = can_buffer[i];
 346              		.loc 1 284 0
 347 000e 032B     		cmp	r3, #3
 348 0010 02D9     		bls	.L40
 349              		.loc 1 284 0 is_stmt 0 discriminator 1
 350 0012 C3F10B00 		rsb	r0, r3, #11
 351 0016 01E0     		b	.L41
 352              	.L40:
 353              		.loc 1 284 0 discriminator 2
 354 0018 C3F10300 		rsb	r0, r3, #3
 355              	.L41:
 356              		.loc 1 284 0 discriminator 4
 357 001c 094A     		ldr	r2, .L44+4
 358 001e D15C     		ldrb	r1, [r2, r3]	@ zero_extendqisi2
 359 0020 094A     		ldr	r2, .L44+8
 360 0022 1154     		strb	r1, [r2, r0]
 283:Generated_Source\PSoC5/CAN_TX_RX_func.c **** 					CAN_TX_DATA_BYTE(1,i) = can_buffer[i];
 361              		.loc 1 283 0 is_stmt 1 discriminator 4
 362 0024 0133     		adds	r3, r3, #1
 363              	.LVL36:
 364 0026 DBB2     		uxtb	r3, r3
 365              	.LVL37:
 366              	.L39:
 283:Generated_Source\PSoC5/CAN_TX_RX_func.c **** 					CAN_TX_DATA_BYTE(1,i) = can_buffer[i];
 367              		.loc 1 283 0 is_stmt 0 discriminator 2
 368 0028 072B     		cmp	r3, #7
 369 002a F0D9     		bls	.L42
 285:Generated_Source\PSoC5/CAN_TX_RX_func.c ****                 /* `#END` */
 286:Generated_Source\PSoC5/CAN_TX_RX_func.c **** 
 287:Generated_Source\PSoC5/CAN_TX_RX_func.c ****                 #ifdef CAN_SEND_MSG_Dash_cmd_CALLBACK
 288:Generated_Source\PSoC5/CAN_TX_RX_func.c ****                     CAN_SendMsg_Dash_cmd_Callback();
 289:Generated_Source\PSoC5/CAN_TX_RX_func.c ****                 #endif /* CAN_SEND_MSG_Dash_cmd_CALLBACK */
 290:Generated_Source\PSoC5/CAN_TX_RX_func.c **** 
 291:Generated_Source\PSoC5/CAN_TX_RX_func.c ****                 CY_SET_REG32(CAN_TX_CMD_PTR(1u),
 370              		.loc 1 291 0 is_stmt 1
 371 002c 044A     		ldr	r2, .L44
 372 002e 1368     		ldr	r3, [r2]
 373              	.LVL38:
 374 0030 43F00103 		orr	r3, r3, #1
 375 0034 1360     		str	r3, [r2]
 376              	.LBE3:
 268:Generated_Source\PSoC5/CAN_TX_RX_func.c **** 
 377              		.loc 1 268 0
 378 0036 0020     		movs	r0, #0
 379 0038 7047     		bx	lr
ARM GAS  C:\Users\ianrd\AppData\Local\Temp\ccJ8b3Fg.s 			page 13


 380              	.L43:
 276:Generated_Source\PSoC5/CAN_TX_RX_func.c ****             }
 381              		.loc 1 276 0
 382 003a 0120     		movs	r0, #1
 383              	.LVL39:
 292:Generated_Source\PSoC5/CAN_TX_RX_func.c ****                 CY_GET_REG32(CAN_TX_CMD_PTR(1u)) | CAN_SEND_MESSAGE);
 293:Generated_Source\PSoC5/CAN_TX_RX_func.c ****             }
 294:Generated_Source\PSoC5/CAN_TX_RX_func.c **** 
 295:Generated_Source\PSoC5/CAN_TX_RX_func.c ****         return (result);
 296:Generated_Source\PSoC5/CAN_TX_RX_func.c ****     }
 384              		.loc 1 296 0
 385 003c 7047     		bx	lr
 386              	.L45:
 387 003e 00BF     		.align	2
 388              	.L44:
 389 0040 30A00040 		.word	1073782832
 390 0044 00000000 		.word	can_buffer
 391 0048 38A00040 		.word	1073782840
 392              		.cfi_endproc
 393              	.LFE66:
 394              		.size	CAN_SendMsgDash_cmd, .-CAN_SendMsgDash_cmd
 395              		.section	.text.CAN_ReceiveMsg,"ax",%progbits
 396              		.align	2
 397              		.global	CAN_ReceiveMsg
 398              		.thumb
 399              		.thumb_func
 400              		.type	CAN_ReceiveMsg, %function
 401              	CAN_ReceiveMsg:
 402              	.LFB67:
 297:Generated_Source\PSoC5/CAN_TX_RX_func.c **** #endif /* CAN_TX1_FUNC_ENABLE */
 298:Generated_Source\PSoC5/CAN_TX_RX_func.c **** 
 299:Generated_Source\PSoC5/CAN_TX_RX_func.c **** 
 300:Generated_Source\PSoC5/CAN_TX_RX_func.c **** #if (CAN_TX2_FUNC_ENABLE)
 301:Generated_Source\PSoC5/CAN_TX_RX_func.c ****     /*******************************************************************************
 302:Generated_Source\PSoC5/CAN_TX_RX_func.c ****     * FUNCTION NAME:   CAN_SendMsg2
 303:Generated_Source\PSoC5/CAN_TX_RX_func.c ****     ********************************************************************************
 304:Generated_Source\PSoC5/CAN_TX_RX_func.c ****     *
 305:Generated_Source\PSoC5/CAN_TX_RX_func.c ****     * Summary:
 306:Generated_Source\PSoC5/CAN_TX_RX_func.c ****     *  This function is the entry point to Transmit Message 2. The function checks
 307:Generated_Source\PSoC5/CAN_TX_RX_func.c ****     *  if mailbox 2 doesn't already have un-transmitted messages waiting for
 308:Generated_Source\PSoC5/CAN_TX_RX_func.c ****     *  arbitration. If not initiate transmission of the message.
 309:Generated_Source\PSoC5/CAN_TX_RX_func.c ****     *  Generated only for the Transmit mailbox designed as Full.
 310:Generated_Source\PSoC5/CAN_TX_RX_func.c ****     *
 311:Generated_Source\PSoC5/CAN_TX_RX_func.c ****     * Parameters:
 312:Generated_Source\PSoC5/CAN_TX_RX_func.c ****     *  None.
 313:Generated_Source\PSoC5/CAN_TX_RX_func.c ****     *
 314:Generated_Source\PSoC5/CAN_TX_RX_func.c ****     * Return:
 315:Generated_Source\PSoC5/CAN_TX_RX_func.c ****     *  Indication if Message has been sent.
 316:Generated_Source\PSoC5/CAN_TX_RX_func.c ****     *   Define                             Description
 317:Generated_Source\PSoC5/CAN_TX_RX_func.c ****     *    CYRET_SUCCESS                      The function passed successfully
 318:Generated_Source\PSoC5/CAN_TX_RX_func.c ****     *    CAN_FAIL              The function failed
 319:Generated_Source\PSoC5/CAN_TX_RX_func.c ****     *
 320:Generated_Source\PSoC5/CAN_TX_RX_func.c ****     *******************************************************************************/
 321:Generated_Source\PSoC5/CAN_TX_RX_func.c ****     uint8 CAN_SendMsg2(void) 
 322:Generated_Source\PSoC5/CAN_TX_RX_func.c ****     {
 323:Generated_Source\PSoC5/CAN_TX_RX_func.c ****         uint8 result = CYRET_SUCCESS;
 324:Generated_Source\PSoC5/CAN_TX_RX_func.c **** 
ARM GAS  C:\Users\ianrd\AppData\Local\Temp\ccJ8b3Fg.s 			page 14


 325:Generated_Source\PSoC5/CAN_TX_RX_func.c ****         #if (CY_PSOC3 || CY_PSOC5)
 326:Generated_Source\PSoC5/CAN_TX_RX_func.c ****             if ((CAN_TX[2u].txcmd.byte[0u] & CAN_TX_REQUEST_PENDING) != 0u)
 327:Generated_Source\PSoC5/CAN_TX_RX_func.c ****         #else  /* CY_PSOC4 */
 328:Generated_Source\PSoC5/CAN_TX_RX_func.c ****             if ((CAN_TX_CMD_REG(2u) & CAN_TX_REQUEST_PENDING) != 0u)
 329:Generated_Source\PSoC5/CAN_TX_RX_func.c ****         #endif /* CY_PSOC3 || CY_PSOC5 */
 330:Generated_Source\PSoC5/CAN_TX_RX_func.c ****             {
 331:Generated_Source\PSoC5/CAN_TX_RX_func.c ****                 result = CAN_FAIL;
 332:Generated_Source\PSoC5/CAN_TX_RX_func.c ****             }
 333:Generated_Source\PSoC5/CAN_TX_RX_func.c ****             else
 334:Generated_Source\PSoC5/CAN_TX_RX_func.c ****             {
 335:Generated_Source\PSoC5/CAN_TX_RX_func.c ****                 /* `#START MESSAGE_2_TRASMITTED` */
 336:Generated_Source\PSoC5/CAN_TX_RX_func.c **** 
 337:Generated_Source\PSoC5/CAN_TX_RX_func.c ****                 /* `#END` */
 338:Generated_Source\PSoC5/CAN_TX_RX_func.c **** 
 339:Generated_Source\PSoC5/CAN_TX_RX_func.c ****                 #ifdef CAN_SEND_MSG_2_CALLBACK
 340:Generated_Source\PSoC5/CAN_TX_RX_func.c ****                     CAN_SendMsg_2_Callback();
 341:Generated_Source\PSoC5/CAN_TX_RX_func.c ****                 #endif /* CAN_SEND_MSG_2_CALLBACK */
 342:Generated_Source\PSoC5/CAN_TX_RX_func.c **** 
 343:Generated_Source\PSoC5/CAN_TX_RX_func.c ****                 CY_SET_REG32(CAN_TX_CMD_PTR(2u),
 344:Generated_Source\PSoC5/CAN_TX_RX_func.c ****                 CY_GET_REG32(CAN_TX_CMD_PTR(2u)) | CAN_SEND_MESSAGE);
 345:Generated_Source\PSoC5/CAN_TX_RX_func.c ****             }
 346:Generated_Source\PSoC5/CAN_TX_RX_func.c **** 
 347:Generated_Source\PSoC5/CAN_TX_RX_func.c ****         return (result);
 348:Generated_Source\PSoC5/CAN_TX_RX_func.c ****     }
 349:Generated_Source\PSoC5/CAN_TX_RX_func.c **** #endif /* CAN_TX2_FUNC_ENABLE */
 350:Generated_Source\PSoC5/CAN_TX_RX_func.c **** 
 351:Generated_Source\PSoC5/CAN_TX_RX_func.c **** 
 352:Generated_Source\PSoC5/CAN_TX_RX_func.c **** #if (CAN_TX3_FUNC_ENABLE)
 353:Generated_Source\PSoC5/CAN_TX_RX_func.c ****     /*******************************************************************************
 354:Generated_Source\PSoC5/CAN_TX_RX_func.c ****     * FUNCTION NAME:   CAN_SendMsg3
 355:Generated_Source\PSoC5/CAN_TX_RX_func.c ****     ********************************************************************************
 356:Generated_Source\PSoC5/CAN_TX_RX_func.c ****     *
 357:Generated_Source\PSoC5/CAN_TX_RX_func.c ****     * Summary:
 358:Generated_Source\PSoC5/CAN_TX_RX_func.c ****     *  This function is the entry point to Transmit Message 3. The function checks
 359:Generated_Source\PSoC5/CAN_TX_RX_func.c ****     *  if mailbox 3 doesn't already have un-transmitted messages waiting for
 360:Generated_Source\PSoC5/CAN_TX_RX_func.c ****     *  arbitration. If not initiate transmission of the message.
 361:Generated_Source\PSoC5/CAN_TX_RX_func.c ****     *  Generated only for the Transmit mailbox designed as Full.
 362:Generated_Source\PSoC5/CAN_TX_RX_func.c ****     *
 363:Generated_Source\PSoC5/CAN_TX_RX_func.c ****     * Parameters:
 364:Generated_Source\PSoC5/CAN_TX_RX_func.c ****     *  None.
 365:Generated_Source\PSoC5/CAN_TX_RX_func.c ****     *
 366:Generated_Source\PSoC5/CAN_TX_RX_func.c ****     * Return:
 367:Generated_Source\PSoC5/CAN_TX_RX_func.c ****     *  Indication if Message has been sent.
 368:Generated_Source\PSoC5/CAN_TX_RX_func.c ****     *   Define                             Description
 369:Generated_Source\PSoC5/CAN_TX_RX_func.c ****     *    CYRET_SUCCESS                      The function passed successfully
 370:Generated_Source\PSoC5/CAN_TX_RX_func.c ****     *    CAN_FAIL              The function failed
 371:Generated_Source\PSoC5/CAN_TX_RX_func.c ****     *
 372:Generated_Source\PSoC5/CAN_TX_RX_func.c ****     *******************************************************************************/
 373:Generated_Source\PSoC5/CAN_TX_RX_func.c ****     uint8 CAN_SendMsg3(void) 
 374:Generated_Source\PSoC5/CAN_TX_RX_func.c ****     {
 375:Generated_Source\PSoC5/CAN_TX_RX_func.c ****         uint8 result = CYRET_SUCCESS;
 376:Generated_Source\PSoC5/CAN_TX_RX_func.c **** 
 377:Generated_Source\PSoC5/CAN_TX_RX_func.c ****         #if (CY_PSOC3 || CY_PSOC5)
 378:Generated_Source\PSoC5/CAN_TX_RX_func.c ****             if ((CAN_TX[3u].txcmd.byte[0u] & CAN_TX_REQUEST_PENDING) != 0u)
 379:Generated_Source\PSoC5/CAN_TX_RX_func.c ****         #else  /* CY_PSOC4 */
 380:Generated_Source\PSoC5/CAN_TX_RX_func.c ****             if ((CAN_TX_CMD_REG(3u) & CAN_TX_REQUEST_PENDING) != 0u)
 381:Generated_Source\PSoC5/CAN_TX_RX_func.c ****         #endif /* CY_PSOC3 || CY_PSOC5 */
ARM GAS  C:\Users\ianrd\AppData\Local\Temp\ccJ8b3Fg.s 			page 15


 382:Generated_Source\PSoC5/CAN_TX_RX_func.c ****             {
 383:Generated_Source\PSoC5/CAN_TX_RX_func.c ****                 result = CAN_FAIL;
 384:Generated_Source\PSoC5/CAN_TX_RX_func.c ****             }
 385:Generated_Source\PSoC5/CAN_TX_RX_func.c ****             else
 386:Generated_Source\PSoC5/CAN_TX_RX_func.c ****             {
 387:Generated_Source\PSoC5/CAN_TX_RX_func.c ****                 /* `#START MESSAGE_3_TRASMITTED` */
 388:Generated_Source\PSoC5/CAN_TX_RX_func.c **** 
 389:Generated_Source\PSoC5/CAN_TX_RX_func.c ****                 /* `#END` */
 390:Generated_Source\PSoC5/CAN_TX_RX_func.c **** 
 391:Generated_Source\PSoC5/CAN_TX_RX_func.c ****                 #ifdef CAN_SEND_MSG_3_CALLBACK
 392:Generated_Source\PSoC5/CAN_TX_RX_func.c ****                     CAN_SendMsg_3_Callback();
 393:Generated_Source\PSoC5/CAN_TX_RX_func.c ****                 #endif /* CAN_SEND_MSG_3_CALLBACK */
 394:Generated_Source\PSoC5/CAN_TX_RX_func.c **** 
 395:Generated_Source\PSoC5/CAN_TX_RX_func.c ****                 CY_SET_REG32(CAN_TX_CMD_PTR(3u),
 396:Generated_Source\PSoC5/CAN_TX_RX_func.c ****                 CY_GET_REG32(CAN_TX_CMD_PTR(3u)) | CAN_SEND_MESSAGE);
 397:Generated_Source\PSoC5/CAN_TX_RX_func.c ****             }
 398:Generated_Source\PSoC5/CAN_TX_RX_func.c **** 
 399:Generated_Source\PSoC5/CAN_TX_RX_func.c ****         return (result);
 400:Generated_Source\PSoC5/CAN_TX_RX_func.c ****     }
 401:Generated_Source\PSoC5/CAN_TX_RX_func.c **** #endif /* CAN_TX3_FUNC_ENABLE */
 402:Generated_Source\PSoC5/CAN_TX_RX_func.c **** 
 403:Generated_Source\PSoC5/CAN_TX_RX_func.c **** 
 404:Generated_Source\PSoC5/CAN_TX_RX_func.c **** #if (CAN_TX4_FUNC_ENABLE)
 405:Generated_Source\PSoC5/CAN_TX_RX_func.c ****     /*******************************************************************************
 406:Generated_Source\PSoC5/CAN_TX_RX_func.c ****     * FUNCTION NAME:   CAN_SendMsg4
 407:Generated_Source\PSoC5/CAN_TX_RX_func.c ****     ********************************************************************************
 408:Generated_Source\PSoC5/CAN_TX_RX_func.c ****     *
 409:Generated_Source\PSoC5/CAN_TX_RX_func.c ****     * Summary:
 410:Generated_Source\PSoC5/CAN_TX_RX_func.c ****     *  This function is the entry point to Transmit Message 4. The function checks
 411:Generated_Source\PSoC5/CAN_TX_RX_func.c ****     *  if mailbox 4 doesn't already have un-transmitted messages waiting for
 412:Generated_Source\PSoC5/CAN_TX_RX_func.c ****     *  arbitration. If not initiate transmission of the message.
 413:Generated_Source\PSoC5/CAN_TX_RX_func.c ****     *  Generated only for the Transmit mailbox designed as Full.
 414:Generated_Source\PSoC5/CAN_TX_RX_func.c ****     *
 415:Generated_Source\PSoC5/CAN_TX_RX_func.c ****     * Parameters:
 416:Generated_Source\PSoC5/CAN_TX_RX_func.c ****     *  None.
 417:Generated_Source\PSoC5/CAN_TX_RX_func.c ****     *
 418:Generated_Source\PSoC5/CAN_TX_RX_func.c ****     * Return:
 419:Generated_Source\PSoC5/CAN_TX_RX_func.c ****     *  Indication if Message has been sent.
 420:Generated_Source\PSoC5/CAN_TX_RX_func.c ****     *   Define                             Description
 421:Generated_Source\PSoC5/CAN_TX_RX_func.c ****     *    CYRET_SUCCESS                      The function passed successfully
 422:Generated_Source\PSoC5/CAN_TX_RX_func.c ****     *    CAN_FAIL              The function failed
 423:Generated_Source\PSoC5/CAN_TX_RX_func.c ****     *
 424:Generated_Source\PSoC5/CAN_TX_RX_func.c ****     *******************************************************************************/
 425:Generated_Source\PSoC5/CAN_TX_RX_func.c ****     uint8 CAN_SendMsg4(void) 
 426:Generated_Source\PSoC5/CAN_TX_RX_func.c ****     {
 427:Generated_Source\PSoC5/CAN_TX_RX_func.c ****         uint8 result = CYRET_SUCCESS;
 428:Generated_Source\PSoC5/CAN_TX_RX_func.c **** 
 429:Generated_Source\PSoC5/CAN_TX_RX_func.c ****         #if (CY_PSOC3 || CY_PSOC5)
 430:Generated_Source\PSoC5/CAN_TX_RX_func.c ****             if ((CAN_TX[4u].txcmd.byte[0u] & CAN_TX_REQUEST_PENDING) != 0u)
 431:Generated_Source\PSoC5/CAN_TX_RX_func.c ****         #else  /* CY_PSOC4 */
 432:Generated_Source\PSoC5/CAN_TX_RX_func.c ****             if ((CAN_TX_CMD_REG(4u) & CAN_TX_REQUEST_PENDING) != 0u)
 433:Generated_Source\PSoC5/CAN_TX_RX_func.c ****         #endif /* CY_PSOC3 || CY_PSOC5 */
 434:Generated_Source\PSoC5/CAN_TX_RX_func.c ****             {
 435:Generated_Source\PSoC5/CAN_TX_RX_func.c ****                 result = CAN_FAIL;
 436:Generated_Source\PSoC5/CAN_TX_RX_func.c ****             }
 437:Generated_Source\PSoC5/CAN_TX_RX_func.c ****             else
 438:Generated_Source\PSoC5/CAN_TX_RX_func.c ****             {
ARM GAS  C:\Users\ianrd\AppData\Local\Temp\ccJ8b3Fg.s 			page 16


 439:Generated_Source\PSoC5/CAN_TX_RX_func.c ****                 /* `#START MESSAGE_4_TRASMITTED` */
 440:Generated_Source\PSoC5/CAN_TX_RX_func.c **** 
 441:Generated_Source\PSoC5/CAN_TX_RX_func.c ****                 /* `#END` */
 442:Generated_Source\PSoC5/CAN_TX_RX_func.c **** 
 443:Generated_Source\PSoC5/CAN_TX_RX_func.c ****                 #ifdef CAN_SEND_MSG_4_CALLBACK
 444:Generated_Source\PSoC5/CAN_TX_RX_func.c ****                     CAN_SendMsg_4_Callback();
 445:Generated_Source\PSoC5/CAN_TX_RX_func.c ****                 #endif /* CAN_SEND_MSG_4_CALLBACK */
 446:Generated_Source\PSoC5/CAN_TX_RX_func.c **** 
 447:Generated_Source\PSoC5/CAN_TX_RX_func.c ****                 CY_SET_REG32(CAN_TX_CMD_PTR(4u),
 448:Generated_Source\PSoC5/CAN_TX_RX_func.c ****                 CY_GET_REG32(CAN_TX_CMD_PTR(4u)) | CAN_SEND_MESSAGE);
 449:Generated_Source\PSoC5/CAN_TX_RX_func.c ****             }
 450:Generated_Source\PSoC5/CAN_TX_RX_func.c **** 
 451:Generated_Source\PSoC5/CAN_TX_RX_func.c ****         return (result);
 452:Generated_Source\PSoC5/CAN_TX_RX_func.c ****     }
 453:Generated_Source\PSoC5/CAN_TX_RX_func.c **** #endif /* CAN_TX4_FUNC_ENABLE */
 454:Generated_Source\PSoC5/CAN_TX_RX_func.c **** 
 455:Generated_Source\PSoC5/CAN_TX_RX_func.c **** 
 456:Generated_Source\PSoC5/CAN_TX_RX_func.c **** #if (CAN_TX5_FUNC_ENABLE)
 457:Generated_Source\PSoC5/CAN_TX_RX_func.c ****     /*******************************************************************************
 458:Generated_Source\PSoC5/CAN_TX_RX_func.c ****     * FUNCTION NAME:   CAN_SendMsg5
 459:Generated_Source\PSoC5/CAN_TX_RX_func.c ****     ********************************************************************************
 460:Generated_Source\PSoC5/CAN_TX_RX_func.c ****     *
 461:Generated_Source\PSoC5/CAN_TX_RX_func.c ****     * Summary:
 462:Generated_Source\PSoC5/CAN_TX_RX_func.c ****     *  This function is the entry point to Transmit Message 5. The function checks
 463:Generated_Source\PSoC5/CAN_TX_RX_func.c ****     *  if mailbox 5 doesn't already have un-transmitted messages waiting for
 464:Generated_Source\PSoC5/CAN_TX_RX_func.c ****     *  arbitration. If not initiate transmission of the message.
 465:Generated_Source\PSoC5/CAN_TX_RX_func.c ****     *  Generated only for the Transmit mailbox designed as Full.
 466:Generated_Source\PSoC5/CAN_TX_RX_func.c ****     *
 467:Generated_Source\PSoC5/CAN_TX_RX_func.c ****     * Parameters:
 468:Generated_Source\PSoC5/CAN_TX_RX_func.c ****     *  None.
 469:Generated_Source\PSoC5/CAN_TX_RX_func.c ****     *
 470:Generated_Source\PSoC5/CAN_TX_RX_func.c ****     * Return:
 471:Generated_Source\PSoC5/CAN_TX_RX_func.c ****     *  Indication if Message has been sent.
 472:Generated_Source\PSoC5/CAN_TX_RX_func.c ****     *   Define                             Description
 473:Generated_Source\PSoC5/CAN_TX_RX_func.c ****     *    CYRET_SUCCESS                      The function passed successfully
 474:Generated_Source\PSoC5/CAN_TX_RX_func.c ****     *    CAN_FAIL              The function failed
 475:Generated_Source\PSoC5/CAN_TX_RX_func.c ****     *
 476:Generated_Source\PSoC5/CAN_TX_RX_func.c ****     *******************************************************************************/
 477:Generated_Source\PSoC5/CAN_TX_RX_func.c ****     uint8 CAN_SendMsg5(void) 
 478:Generated_Source\PSoC5/CAN_TX_RX_func.c ****     {
 479:Generated_Source\PSoC5/CAN_TX_RX_func.c ****         uint8 result = CYRET_SUCCESS;
 480:Generated_Source\PSoC5/CAN_TX_RX_func.c **** 
 481:Generated_Source\PSoC5/CAN_TX_RX_func.c ****         #if (CY_PSOC3 || CY_PSOC5)
 482:Generated_Source\PSoC5/CAN_TX_RX_func.c ****             if ((CAN_TX[5u].txcmd.byte[0u] & CAN_TX_REQUEST_PENDING) != 0u)
 483:Generated_Source\PSoC5/CAN_TX_RX_func.c ****         #else  /* CY_PSOC4 */
 484:Generated_Source\PSoC5/CAN_TX_RX_func.c ****             if ((CAN_TX_CMD_REG(5u) & CAN_TX_REQUEST_PENDING) != 0u)
 485:Generated_Source\PSoC5/CAN_TX_RX_func.c ****         #endif /* CY_PSOC3 || CY_PSOC5 */
 486:Generated_Source\PSoC5/CAN_TX_RX_func.c ****             {
 487:Generated_Source\PSoC5/CAN_TX_RX_func.c ****                 result = CAN_FAIL;
 488:Generated_Source\PSoC5/CAN_TX_RX_func.c ****             }
 489:Generated_Source\PSoC5/CAN_TX_RX_func.c ****             else
 490:Generated_Source\PSoC5/CAN_TX_RX_func.c ****             {
 491:Generated_Source\PSoC5/CAN_TX_RX_func.c ****                 /* `#START MESSAGE_5_TRASMITTED` */
 492:Generated_Source\PSoC5/CAN_TX_RX_func.c **** 
 493:Generated_Source\PSoC5/CAN_TX_RX_func.c ****                 /* `#END` */
 494:Generated_Source\PSoC5/CAN_TX_RX_func.c **** 
 495:Generated_Source\PSoC5/CAN_TX_RX_func.c ****                 #ifdef CAN_SEND_MSG_5_CALLBACK
ARM GAS  C:\Users\ianrd\AppData\Local\Temp\ccJ8b3Fg.s 			page 17


 496:Generated_Source\PSoC5/CAN_TX_RX_func.c ****                     CAN_SendMsg_5_Callback();
 497:Generated_Source\PSoC5/CAN_TX_RX_func.c ****                 #endif /* CAN_SEND_MSG_5_CALLBACK */
 498:Generated_Source\PSoC5/CAN_TX_RX_func.c **** 
 499:Generated_Source\PSoC5/CAN_TX_RX_func.c ****                 CY_SET_REG32(CAN_TX_CMD_PTR(5u),
 500:Generated_Source\PSoC5/CAN_TX_RX_func.c ****                 CY_GET_REG32(CAN_TX_CMD_PTR(5u)) | CAN_SEND_MESSAGE);
 501:Generated_Source\PSoC5/CAN_TX_RX_func.c ****             }
 502:Generated_Source\PSoC5/CAN_TX_RX_func.c **** 
 503:Generated_Source\PSoC5/CAN_TX_RX_func.c ****         return (result);
 504:Generated_Source\PSoC5/CAN_TX_RX_func.c ****     }
 505:Generated_Source\PSoC5/CAN_TX_RX_func.c **** #endif /* CAN_TX5_FUNC_ENABLE */
 506:Generated_Source\PSoC5/CAN_TX_RX_func.c **** 
 507:Generated_Source\PSoC5/CAN_TX_RX_func.c **** 
 508:Generated_Source\PSoC5/CAN_TX_RX_func.c **** #if (CAN_TX6_FUNC_ENABLE)
 509:Generated_Source\PSoC5/CAN_TX_RX_func.c ****     /*******************************************************************************
 510:Generated_Source\PSoC5/CAN_TX_RX_func.c ****     * FUNCTION NAME:   CAN_SendMsg6
 511:Generated_Source\PSoC5/CAN_TX_RX_func.c ****     ********************************************************************************
 512:Generated_Source\PSoC5/CAN_TX_RX_func.c ****     *
 513:Generated_Source\PSoC5/CAN_TX_RX_func.c ****     * Summary:
 514:Generated_Source\PSoC5/CAN_TX_RX_func.c ****     *  This function is the entry point to Transmit Message 6. The function checks
 515:Generated_Source\PSoC5/CAN_TX_RX_func.c ****     *  if mailbox 6 doesn't already have un-transmitted messages waiting for
 516:Generated_Source\PSoC5/CAN_TX_RX_func.c ****     *  arbitration. If not initiate transmission of the message.
 517:Generated_Source\PSoC5/CAN_TX_RX_func.c ****     *  Generated only for the Transmit mailbox designed as Full.
 518:Generated_Source\PSoC5/CAN_TX_RX_func.c ****     *
 519:Generated_Source\PSoC5/CAN_TX_RX_func.c ****     * Parameters:
 520:Generated_Source\PSoC5/CAN_TX_RX_func.c ****     *  None.
 521:Generated_Source\PSoC5/CAN_TX_RX_func.c ****     *
 522:Generated_Source\PSoC5/CAN_TX_RX_func.c ****     * Return:
 523:Generated_Source\PSoC5/CAN_TX_RX_func.c ****     *  Indication if Message has been sent.
 524:Generated_Source\PSoC5/CAN_TX_RX_func.c ****     *   Define                             Description
 525:Generated_Source\PSoC5/CAN_TX_RX_func.c ****     *    CYRET_SUCCESS                      The function passed successfully
 526:Generated_Source\PSoC5/CAN_TX_RX_func.c ****     *    CAN_FAIL              The function failed
 527:Generated_Source\PSoC5/CAN_TX_RX_func.c ****     *
 528:Generated_Source\PSoC5/CAN_TX_RX_func.c ****     *******************************************************************************/
 529:Generated_Source\PSoC5/CAN_TX_RX_func.c ****     uint8 CAN_SendMsg6(void) 
 530:Generated_Source\PSoC5/CAN_TX_RX_func.c ****     {
 531:Generated_Source\PSoC5/CAN_TX_RX_func.c ****         uint8 result = CYRET_SUCCESS;
 532:Generated_Source\PSoC5/CAN_TX_RX_func.c **** 
 533:Generated_Source\PSoC5/CAN_TX_RX_func.c ****         #if (CY_PSOC3 || CY_PSOC5)
 534:Generated_Source\PSoC5/CAN_TX_RX_func.c ****             if ((CAN_TX[6u].txcmd.byte[0u] & CAN_TX_REQUEST_PENDING) != 0u)
 535:Generated_Source\PSoC5/CAN_TX_RX_func.c ****         #else  /* CY_PSOC4 */
 536:Generated_Source\PSoC5/CAN_TX_RX_func.c ****             if ((CAN_TX_CMD_REG(6u) & CAN_TX_REQUEST_PENDING) != 0u)
 537:Generated_Source\PSoC5/CAN_TX_RX_func.c ****         #endif /* CY_PSOC3 || CY_PSOC5 */
 538:Generated_Source\PSoC5/CAN_TX_RX_func.c ****             {
 539:Generated_Source\PSoC5/CAN_TX_RX_func.c ****                 result = CAN_FAIL;
 540:Generated_Source\PSoC5/CAN_TX_RX_func.c ****             }
 541:Generated_Source\PSoC5/CAN_TX_RX_func.c ****             else
 542:Generated_Source\PSoC5/CAN_TX_RX_func.c ****             {
 543:Generated_Source\PSoC5/CAN_TX_RX_func.c ****                 /* `#START MESSAGE_6_TRASMITTED` */
 544:Generated_Source\PSoC5/CAN_TX_RX_func.c **** 
 545:Generated_Source\PSoC5/CAN_TX_RX_func.c ****                 /* `#END` */
 546:Generated_Source\PSoC5/CAN_TX_RX_func.c **** 
 547:Generated_Source\PSoC5/CAN_TX_RX_func.c ****                 #ifdef CAN_SEND_MSG_6_CALLBACK
 548:Generated_Source\PSoC5/CAN_TX_RX_func.c ****                     CAN_SendMsg_6_Callback();
 549:Generated_Source\PSoC5/CAN_TX_RX_func.c ****                 #endif /* CAN_SEND_MSG_6_CALLBACK */
 550:Generated_Source\PSoC5/CAN_TX_RX_func.c **** 
 551:Generated_Source\PSoC5/CAN_TX_RX_func.c ****                 CY_SET_REG32(CAN_TX_CMD_PTR(6u),
 552:Generated_Source\PSoC5/CAN_TX_RX_func.c ****                 CY_GET_REG32(CAN_TX_CMD_PTR(6u)) | CAN_SEND_MESSAGE);
ARM GAS  C:\Users\ianrd\AppData\Local\Temp\ccJ8b3Fg.s 			page 18


 553:Generated_Source\PSoC5/CAN_TX_RX_func.c ****             }
 554:Generated_Source\PSoC5/CAN_TX_RX_func.c **** 
 555:Generated_Source\PSoC5/CAN_TX_RX_func.c ****         return (result);
 556:Generated_Source\PSoC5/CAN_TX_RX_func.c ****     }
 557:Generated_Source\PSoC5/CAN_TX_RX_func.c **** #endif /* CAN_TX6_FUNC_ENABLE */
 558:Generated_Source\PSoC5/CAN_TX_RX_func.c **** 
 559:Generated_Source\PSoC5/CAN_TX_RX_func.c **** 
 560:Generated_Source\PSoC5/CAN_TX_RX_func.c **** #if (CAN_TX7_FUNC_ENABLE)
 561:Generated_Source\PSoC5/CAN_TX_RX_func.c ****     /*******************************************************************************
 562:Generated_Source\PSoC5/CAN_TX_RX_func.c ****     * FUNCTION NAME:   CAN_SendMsg7)
 563:Generated_Source\PSoC5/CAN_TX_RX_func.c ****     ********************************************************************************
 564:Generated_Source\PSoC5/CAN_TX_RX_func.c ****     *
 565:Generated_Source\PSoC5/CAN_TX_RX_func.c ****     * Summary:
 566:Generated_Source\PSoC5/CAN_TX_RX_func.c ****     *  This function is the entry point to Transmit Message 7. The function checks
 567:Generated_Source\PSoC5/CAN_TX_RX_func.c ****     *  if mailbox 7 doesn't already have un-transmitted messages waiting for
 568:Generated_Source\PSoC5/CAN_TX_RX_func.c ****     *  arbitration. If not initiate transmission of the message.
 569:Generated_Source\PSoC5/CAN_TX_RX_func.c ****     *  Generated only for the Transmit mailbox designed as Full.
 570:Generated_Source\PSoC5/CAN_TX_RX_func.c ****     *
 571:Generated_Source\PSoC5/CAN_TX_RX_func.c ****     * Parameters:
 572:Generated_Source\PSoC5/CAN_TX_RX_func.c ****     *  None.
 573:Generated_Source\PSoC5/CAN_TX_RX_func.c ****     *
 574:Generated_Source\PSoC5/CAN_TX_RX_func.c ****     * Return:
 575:Generated_Source\PSoC5/CAN_TX_RX_func.c ****     *  Indication if Message has been sent.
 576:Generated_Source\PSoC5/CAN_TX_RX_func.c ****     *   Define                             Description
 577:Generated_Source\PSoC5/CAN_TX_RX_func.c ****     *    CYRET_SUCCESS                      The function passed successfully
 578:Generated_Source\PSoC5/CAN_TX_RX_func.c ****     *    CAN_FAIL              The function failed
 579:Generated_Source\PSoC5/CAN_TX_RX_func.c ****     *
 580:Generated_Source\PSoC5/CAN_TX_RX_func.c ****     *******************************************************************************/
 581:Generated_Source\PSoC5/CAN_TX_RX_func.c ****     uint8 CAN_SendMsg7(void) 
 582:Generated_Source\PSoC5/CAN_TX_RX_func.c ****     {
 583:Generated_Source\PSoC5/CAN_TX_RX_func.c ****         uint8 result = CYRET_SUCCESS;
 584:Generated_Source\PSoC5/CAN_TX_RX_func.c **** 
 585:Generated_Source\PSoC5/CAN_TX_RX_func.c ****         #if (CY_PSOC3 || CY_PSOC5)
 586:Generated_Source\PSoC5/CAN_TX_RX_func.c ****             if ((CAN_TX[7u].txcmd.byte[0u] & CAN_TX_REQUEST_PENDING) != 0u)
 587:Generated_Source\PSoC5/CAN_TX_RX_func.c ****         #else  /* CY_PSOC4 */
 588:Generated_Source\PSoC5/CAN_TX_RX_func.c ****             if ((CAN_TX_CMD_REG(7u) & CAN_TX_REQUEST_PENDING) != 0u)
 589:Generated_Source\PSoC5/CAN_TX_RX_func.c ****         #endif /* CY_PSOC3 || CY_PSOC5 */
 590:Generated_Source\PSoC5/CAN_TX_RX_func.c ****             {
 591:Generated_Source\PSoC5/CAN_TX_RX_func.c ****                 result = CAN_FAIL;
 592:Generated_Source\PSoC5/CAN_TX_RX_func.c ****             }
 593:Generated_Source\PSoC5/CAN_TX_RX_func.c ****             else
 594:Generated_Source\PSoC5/CAN_TX_RX_func.c ****             {
 595:Generated_Source\PSoC5/CAN_TX_RX_func.c ****                 /* `#START MESSAGE_7_TRASMITTED` */
 596:Generated_Source\PSoC5/CAN_TX_RX_func.c **** 
 597:Generated_Source\PSoC5/CAN_TX_RX_func.c ****                 /* `#END` */
 598:Generated_Source\PSoC5/CAN_TX_RX_func.c **** 
 599:Generated_Source\PSoC5/CAN_TX_RX_func.c ****                 #ifdef CAN_SEND_MSG_7_CALLBACK
 600:Generated_Source\PSoC5/CAN_TX_RX_func.c ****                     CAN_SendMsg_7_Callback();
 601:Generated_Source\PSoC5/CAN_TX_RX_func.c ****                 #endif /* CAN_SEND_MSG_7_CALLBACK */
 602:Generated_Source\PSoC5/CAN_TX_RX_func.c **** 
 603:Generated_Source\PSoC5/CAN_TX_RX_func.c ****                 CY_SET_REG32(CAN_TX_CMD_PTR(7u),
 604:Generated_Source\PSoC5/CAN_TX_RX_func.c ****                 CY_GET_REG32(CAN_TX_CMD_PTR(7u)) | CAN_SEND_MESSAGE);
 605:Generated_Source\PSoC5/CAN_TX_RX_func.c ****             }
 606:Generated_Source\PSoC5/CAN_TX_RX_func.c **** 
 607:Generated_Source\PSoC5/CAN_TX_RX_func.c ****         return (result);
 608:Generated_Source\PSoC5/CAN_TX_RX_func.c ****     }
 609:Generated_Source\PSoC5/CAN_TX_RX_func.c **** #endif /* CAN_TX7_FUNC_ENABLE */
ARM GAS  C:\Users\ianrd\AppData\Local\Temp\ccJ8b3Fg.s 			page 19


 610:Generated_Source\PSoC5/CAN_TX_RX_func.c **** 
 611:Generated_Source\PSoC5/CAN_TX_RX_func.c **** 
 612:Generated_Source\PSoC5/CAN_TX_RX_func.c **** /*******************************************************************************
 613:Generated_Source\PSoC5/CAN_TX_RX_func.c **** * FUNCTION NAME:   CAN_ReceiveMsg
 614:Generated_Source\PSoC5/CAN_TX_RX_func.c **** ********************************************************************************
 615:Generated_Source\PSoC5/CAN_TX_RX_func.c **** *
 616:Generated_Source\PSoC5/CAN_TX_RX_func.c **** * Summary:
 617:Generated_Source\PSoC5/CAN_TX_RX_func.c **** *  This function is the entry point to Receive Message Interrupt for Basic
 618:Generated_Source\PSoC5/CAN_TX_RX_func.c **** *  mailboxes. Clears the Receive particular Message interrupt flag. Generated
 619:Generated_Source\PSoC5/CAN_TX_RX_func.c **** *  only if one of the Receive mailboxes is designed as Basic.
 620:Generated_Source\PSoC5/CAN_TX_RX_func.c **** *
 621:Generated_Source\PSoC5/CAN_TX_RX_func.c **** * Parameters:
 622:Generated_Source\PSoC5/CAN_TX_RX_func.c **** *  rxMailbox: The mailbox number that trig Receive Message Interrupt.
 623:Generated_Source\PSoC5/CAN_TX_RX_func.c **** *
 624:Generated_Source\PSoC5/CAN_TX_RX_func.c **** * Return:
 625:Generated_Source\PSoC5/CAN_TX_RX_func.c **** *  None.
 626:Generated_Source\PSoC5/CAN_TX_RX_func.c **** *
 627:Generated_Source\PSoC5/CAN_TX_RX_func.c **** * Reentrant:
 628:Generated_Source\PSoC5/CAN_TX_RX_func.c **** *  Depends on the Customer code.
 629:Generated_Source\PSoC5/CAN_TX_RX_func.c **** *
 630:Generated_Source\PSoC5/CAN_TX_RX_func.c **** *******************************************************************************/
 631:Generated_Source\PSoC5/CAN_TX_RX_func.c **** void CAN_ReceiveMsg(uint8 rxMailbox) 
 632:Generated_Source\PSoC5/CAN_TX_RX_func.c **** {
 403              		.loc 1 632 0
 404              		.cfi_startproc
 405              		@ args = 0, pretend = 0, frame = 8
 406              		@ frame_needed = 0, uses_anonymous_args = 0
 407              	.LVL40:
 408 0000 70B5     		push	{r4, r5, r6, lr}
 409              		.cfi_def_cfa_offset 16
 410              		.cfi_offset 4, -16
 411              		.cfi_offset 5, -12
 412              		.cfi_offset 6, -8
 413              		.cfi_offset 14, -4
 414 0002 82B0     		sub	sp, sp, #8
 415              		.cfi_def_cfa_offset 24
 633:Generated_Source\PSoC5/CAN_TX_RX_func.c ****     #if (CY_PSOC3 || CY_PSOC5)
 634:Generated_Source\PSoC5/CAN_TX_RX_func.c ****         if ((CAN_RX[rxMailbox].rxcmd.byte[0u] & CAN_RX_ACK_MSG) != 0u)
 416              		.loc 1 634 0
 417 0004 4601     		lsls	r6, r0, #5
 418 0006 114D     		ldr	r5, .L53
 419 0008 7419     		adds	r4, r6, r5
 420 000a 735D     		ldrb	r3, [r6, r5]	@ zero_extendqisi2
 421 000c 13F0010F 		tst	r3, #1
 422 0010 1AD0     		beq	.L46
 423              	.LBB4:
 635:Generated_Source\PSoC5/CAN_TX_RX_func.c ****     #else  /* CY_PSOC4 */
 636:Generated_Source\PSoC5/CAN_TX_RX_func.c ****         if ((CAN_RX_CMD_REG(rxMailbox) & CAN_RX_ACK_MSG) != 0u)
 637:Generated_Source\PSoC5/CAN_TX_RX_func.c ****     #endif /* CY_PSOC3 || CY_PSOC5 */
 638:Generated_Source\PSoC5/CAN_TX_RX_func.c ****         {
 639:Generated_Source\PSoC5/CAN_TX_RX_func.c ****             /* `#START MESSAGE_BASIC_RECEIVED` */
 640:Generated_Source\PSoC5/CAN_TX_RX_func.c ****             
 641:Generated_Source\PSoC5/CAN_TX_RX_func.c ****             
 642:Generated_Source\PSoC5/CAN_TX_RX_func.c ****             int ID = CAN_GET_RX_ID(rxMailbox);
 424              		.loc 1 642 0
 425 0012 A378     		ldrb	r3, [r4, #2]	@ zero_extendqisi2
 426 0014 13F0100F 		tst	r3, #16
ARM GAS  C:\Users\ianrd\AppData\Local\Temp\ccJ8b3Fg.s 			page 20


 427 0018 02D0     		beq	.L48
 428              		.loc 1 642 0 is_stmt 0 discriminator 1
 429 001a 6168     		ldr	r1, [r4, #4]
 430 001c C908     		lsrs	r1, r1, #3
 431 001e 01E0     		b	.L49
 432              	.L48:
 433              		.loc 1 642 0 discriminator 2
 434 0020 6168     		ldr	r1, [r4, #4]
 435 0022 490D     		lsrs	r1, r1, #21
 436              	.L49:
 437              	.LVL41:
 643:Generated_Source\PSoC5/CAN_TX_RX_func.c ****             //CAN_RX_STRUCT test = CAN_RX[rxMailbox]; // is test always 0s?
 644:Generated_Source\PSoC5/CAN_TX_RX_func.c ****             uint8_t data[8];
 645:Generated_Source\PSoC5/CAN_TX_RX_func.c ****             int i = 0;
 646:Generated_Source\PSoC5/CAN_TX_RX_func.c ****             for (i = 0; i < 8; i++)
 438              		.loc 1 646 0 is_stmt 1 discriminator 4
 439 0024 0023     		movs	r3, #0
 440 0026 06E0     		b	.L50
 441              	.LVL42:
 442              	.L51:
 647:Generated_Source\PSoC5/CAN_TX_RX_func.c ****                 data[i] = CAN_RX[rxMailbox].rxdata.byte[i];
 443              		.loc 1 647 0 discriminator 3
 444 0028 E218     		adds	r2, r4, r3
 445 002a 107A     		ldrb	r0, [r2, #8]	@ zero_extendqisi2
 446 002c 02AA     		add	r2, sp, #8
 447 002e 1A44     		add	r2, r2, r3
 448 0030 02F8080C 		strb	r0, [r2, #-8]
 646:Generated_Source\PSoC5/CAN_TX_RX_func.c ****                 data[i] = CAN_RX[rxMailbox].rxdata.byte[i];
 449              		.loc 1 646 0 discriminator 3
 450 0034 0133     		adds	r3, r3, #1
 451              	.LVL43:
 452              	.L50:
 646:Generated_Source\PSoC5/CAN_TX_RX_func.c ****                 data[i] = CAN_RX[rxMailbox].rxdata.byte[i];
 453              		.loc 1 646 0 is_stmt 0 discriminator 1
 454 0036 072B     		cmp	r3, #7
 455 0038 F6DD     		ble	.L51
 648:Generated_Source\PSoC5/CAN_TX_RX_func.c ****             
 649:Generated_Source\PSoC5/CAN_TX_RX_func.c ****             can_receive(data, ID);
 456              		.loc 1 649 0 is_stmt 1
 457 003a 6846     		mov	r0, sp
 458 003c FFF7FEFF 		bl	can_receive
 459              	.LVL44:
 650:Generated_Source\PSoC5/CAN_TX_RX_func.c ****             
 651:Generated_Source\PSoC5/CAN_TX_RX_func.c ****             /*
 652:Generated_Source\PSoC5/CAN_TX_RX_func.c ****             uint8_t rx_length, rx_index;
 653:Generated_Source\PSoC5/CAN_TX_RX_func.c **** 
 654:Generated_Source\PSoC5/CAN_TX_RX_func.c **** 			rx_length = CAN_GET_DLC(rxMailbox); // gets length of message
 655:Generated_Source\PSoC5/CAN_TX_RX_func.c **** 
 656:Generated_Source\PSoC5/CAN_TX_RX_func.c ****  			can_queue[can_tail].length = rx_length;
 657:Generated_Source\PSoC5/CAN_TX_RX_func.c **** 			can_queue[can_tail].id = CAN_GET_RX_ID(rxMailbox);
 658:Generated_Source\PSoC5/CAN_TX_RX_func.c **** 			can_queue[can_tail].millicounter = 0;
 659:Generated_Source\PSoC5/CAN_TX_RX_func.c **** 
 660:Generated_Source\PSoC5/CAN_TX_RX_func.c **** 			for(rx_index = 0; rx_index < rx_length; rx_index++)
 661:Generated_Source\PSoC5/CAN_TX_RX_func.c **** 			{
 662:Generated_Source\PSoC5/CAN_TX_RX_func.c **** 				can_queue[can_tail].data[rx_index] =
 663:Generated_Source\PSoC5/CAN_TX_RX_func.c **** 					CAN_RX_DATA_BYTE(rxMailbox, rx_index);
 664:Generated_Source\PSoC5/CAN_TX_RX_func.c **** 			} // for all bytes, copy data to can_queue
ARM GAS  C:\Users\ianrd\AppData\Local\Temp\ccJ8b3Fg.s 			page 21


 665:Generated_Source\PSoC5/CAN_TX_RX_func.c **** 
 666:Generated_Source\PSoC5/CAN_TX_RX_func.c **** 			can_tail = (can_tail + 1) % CAN_QUEUE_LENGTH;
 667:Generated_Source\PSoC5/CAN_TX_RX_func.c **** 
 668:Generated_Source\PSoC5/CAN_TX_RX_func.c **** 			if(can_tail == can_head) // if need to roll queue
 669:Generated_Source\PSoC5/CAN_TX_RX_func.c **** 				can_head = (can_head + 1) % CAN_QUEUE_LENGTH;
 670:Generated_Source\PSoC5/CAN_TX_RX_func.c ****              */
 671:Generated_Source\PSoC5/CAN_TX_RX_func.c ****             /* `#END` */
 672:Generated_Source\PSoC5/CAN_TX_RX_func.c **** 
 673:Generated_Source\PSoC5/CAN_TX_RX_func.c ****             #ifdef CAN_RECEIVE_MSG_CALLBACK
 674:Generated_Source\PSoC5/CAN_TX_RX_func.c ****                 CAN_ReceiveMsg_Callback();
 675:Generated_Source\PSoC5/CAN_TX_RX_func.c ****             #endif /* CAN_RECEIVE_MSG_CALLBACK */
 676:Generated_Source\PSoC5/CAN_TX_RX_func.c **** 
 677:Generated_Source\PSoC5/CAN_TX_RX_func.c ****             #if (CY_PSOC3 || CY_PSOC5)
 678:Generated_Source\PSoC5/CAN_TX_RX_func.c ****                 CAN_RX[rxMailbox].rxcmd.byte[0u] |= CAN_RX_ACK_MSG;
 460              		.loc 1 678 0
 461 0040 735D     		ldrb	r3, [r6, r5]	@ zero_extendqisi2
 462 0042 43F00103 		orr	r3, r3, #1
 463 0046 7355     		strb	r3, [r6, r5]
 464              	.L46:
 465              	.LBE4:
 679:Generated_Source\PSoC5/CAN_TX_RX_func.c ****             #else  /* CY_PSOC4 */
 680:Generated_Source\PSoC5/CAN_TX_RX_func.c ****                 CAN_RX_CMD_REG(rxMailbox) |= CAN_RX_ACK_MSG;
 681:Generated_Source\PSoC5/CAN_TX_RX_func.c ****             #endif /* CY_PSOC3 || CY_PSOC5 */
 682:Generated_Source\PSoC5/CAN_TX_RX_func.c ****         }
 683:Generated_Source\PSoC5/CAN_TX_RX_func.c **** }
 466              		.loc 1 683 0
 467 0048 02B0     		add	sp, sp, #8
 468              		.cfi_def_cfa_offset 16
 469              		@ sp needed
 470 004a 70BD     		pop	{r4, r5, r6, pc}
 471              	.L54:
 472              		.align	2
 473              	.L53:
 474 004c A0A00040 		.word	1073782944
 475              		.cfi_endproc
 476              	.LFE67:
 477              		.size	CAN_ReceiveMsg, .-CAN_ReceiveMsg
 478              		.text
 479              	.Letext0:
 480              		.file 2 "c:\\program files (x86)\\cypress\\psoc creator\\4.2\\psoc creator\\import\\gnu\\arm\\5.4.
 481              		.file 3 "c:\\program files (x86)\\cypress\\psoc creator\\4.2\\psoc creator\\import\\gnu\\arm\\5.4.
 482              		.file 4 "Generated_Source\\PSoC5\\cytypes.h"
 483              		.file 5 "Generated_Source\\PSoC5\\CAN.h"
 484              		.file 6 "Generated_Source\\PSoC5/core_cm3.h"
 485              		.file 7 "./can_manga.h"